(lp0
S'___###___###___\n____#_____#____\n____#_____#____\n_______#_______\n###___###___###\n_______#_______\n____#_____#____\n___###___###___\n____#_____#____\n_______#_______\n###___###___###\n_______#_______\n____#_____#____\n____#_____#____\n___###___###___'
p1
aS'_____#_____#___\n_____#_____#___\n_______________\n###_____###____\n_______________\n___#####___#___\n_____#______###\n#_____________#\n###______#_____\n___#___#####___\n_______________\n____###_____###\n_______________\n___#_____#_____\n___#_____#_____'
p2
aS'_____#_____#___\n_____#_____#___\n___________#___\n___#___##______\n#______________\n#___##___#_____\n#_____#____#___\n###_________###\n___#____#_____#\n_____#___##___#\n______________#\n______##___#___\n___#___________\n___#_____#_____\n___#_____#_____'
p3
aS'_____#_____#___\n_____#_____#___\n___________#___\n____#_____#____\n______##_____##\n###____________\n___#____#______\n_____#___#_____\n______#____#___\n____________###\n##_____##______\n____#_____#____\n___#___________\n___#_____#_____\n___#_____#_____'
p4
aS'_____###______#______\n______#_______#______\n______________#______\n___#____#____#____###\n___#____#___#____#___\n____#____#______#____\n##____________#______\n_____##___#____#_____\n______#____##_______#\n____#_______##______#\n#####___________#####\n#______##_______#____\n#_______##____#______\n_____#____#___##_____\n______#____________##\n____#______#____#____\n___#____#___#____#___\n###____#____#____#___\n______#______________\n______#_______#______\n______#______###_____'
p5
aS'###_________###\n##___________##\n#_____________#\n______###______\n_____#___#_____\n____#_____#____\n___#___________\n___#_______#___\n___________#___\n____#_____#____\n_____#___#_____\n______###______\n#_____________#\n##___________##\n###_________###'
p6
aS'_______#___#___\n_______#_______\n_______#_______\n____#____#_____\n____#_____#____\n_____#____#____\n###___#____#___\n___#_______#___\n___#____#___###\n____#____#_____\n____#_____#____\n_____#____#____\n_______#_______\n_______#_______\n___#___#_______'
p7
aS'______#___#____\n______#___#____\n__________#____\n____##_________\n###____##____##\n#________#_____\n______#___#____\n___#_______#___\n____#___#______\n_____#________#\n##____##____###\n_________##____\n____#__________\n____#___#______\n____#___#______'
p8
aS'_____#____#____\n_____#____#____\n_____#_________\n____#___##_____\n______________#\n##____##___####\n__________#____\n_____#___#_____\n____#__________\n####___##____##\n#______________\n_____##___#____\n_________#_____\n____#____#_____\n____#____#_____'
p9
aS'____#____#_____\n____#____#_____\n____#____#_____\n____________###\n###___###______\n##_____________\n#____#_____#___\n____#_____#____\n___#_____#____#\n_____________##\n______###___###\n###____________\n_____#____#____\n_____#____#____\n_____#____#____'
p10
aS'_____#______###______\n_____#_______#_______\n_____#_______#_______\n_______#___#___#___##\n____#___#______#____#\n###_______#______#___\n#___________#___#____\n_____##_______#______\n________#______#_____\n____#____#___#_______\n####_____________####\n_______#___#____#____\n_____#______#________\n______#_______##_____\n____#___#___________#\n___#______#_______###\n#____#______#___#____\n##___#___#___#_______\n_______#_______#_____\n_______#_______#_____\n______###______#_____'
p11
aS'_______#_______\n_______#_______\n_______#_______\n#_______#______\n####_____#____#\n____#_____#____\n_____#_____#___\n_______________\n___#_____#_____\n____#_____#____\n#____#_____####\n______#_______#\n_______#_______\n_______#_______\n_______#_______'
p12
aS'________#______\n________#______\n________#______\n_____####______\n________#______\n___#____#_____#\n____________###\n____#_____#____\n###____________\n#_____#____#___\n______#________\n______####_____\n______#________\n______#________\n______#________'
p13
aS'____#___##_____\n____#___#______\n________#______\n_____#_________\n___#___#___#___\n_________#_____\n###___#___#____\n##___________##\n____#___#___###\n_____#_________\n___#___#___#___\n_________#_____\n______#________\n______#___#____\n_____##___#____'
p14
aS'_______#___#___\n_______#___#___\n___________#___\n###_______#____\n_____#_________\n______###______\n___##____#___##\n#_____________#\n##___#____##___\n______###______\n_________#_____\n____#_______###\n___#___________\n___#___#_______\n___#___#_______'
p15
aS'____#____#_____\n____#____#_____\n____#____#_____\n____________###\n___#___#___#___\n##_____________\n###___#___#____\n_____#___#_____\n____#___#___###\n_____________##\n___#___#___#___\n###____________\n_____#____#____\n_____#____#____\n_____#____#____'
p16
aS'_____#____#____\n_____#____#____\n_____#_________\n___#___##_____#\n___________#___\n____#____###___\n###___#____#___\n_______________\n___#____#___###\n___###____#____\n___#___________\n#_____##___#___\n_________#_____\n____#____#_____\n____#____#_____'
p17
aS'_____#____##___#____#\n_____#____#____#_____\n_____________________\n#_____##____#___#____\n###__________________\n___#______#___#___###\n____#___##___#_______\n_______________##____\n______##___##________\n_____##____#_____#___\n###_______________###\n___#_____#____##_____\n________##___##______\n____##_______________\n_______#___##___#____\n###___#___#______#___\n__________________###\n____#___#____##_____#\n_____________________\n_____#____#____#_____\n#____#___##____#_____'
p18
aS'________#______\n________#______\n________#______\n##______#_____#\n______##____###\n_____#________#\n____#__________\n___#_______#___\n__________#____\n#________#_____\n###____##______\n#_____#______##\n______#________\n______#________\n______#________'
p19
aS'_______#_______\n_______#_______\n_______#_______\n#______________\n____#____#_____\n_____#____#____\n______#_____###\n___#___#___#___\n###_____#______\n____#____#_____\n_____#____#____\n______________#\n_______#_______\n_______#_______\n_______#_______'
p20
aS'______###______\n________#______\n________#______\n_____#___##____\n______##____###\n####___________\n____#___#______\n____#_____#____\n______#___#____\n___________####\n###____##______\n____##___#_____\n______#________\n______#________\n______###______'
p21
aS'______#___#____\n______#___#____\n______#___#____\n_____________##\n_____#_____#___\n####____#______\n____#___##_____\n_______#_______\n_____##___#____\n______#____####\n___#_____#_____\n##_____________\n____#___#______\n____#___#______\n____#___#______'
p22
aS'_____#____##___\n_____#____#____\n_______________\n___##_______###\n______###______\n_____#___#_____\n###_______#____\n#_____________#\n____#_______###\n_____#___#_____\n______###______\n###_______##___\n_______________\n____#____#_____\n___##____#_____'
p23
aS'____#____#_____\n____#____#_____\n____#____#_____\n____________###\n___#___#___#___\n###___#________\n_____#____#____\n_______________\n____#____#_____\n________#___###\n___#___#___#___\n###____________\n_____#____#____\n_____#____#____\n_____#____#____'
p24
aS'#_____##____#_______#\n______#_____#________\n____________#________\n_____#_______#___#___\n____#_____#_____#____\n___##____#_____#_____\n________#_____##___##\n###___##_____#_______\n#_____#____#_____#___\n______#____#____#____\n______#___#___#______\n____#____#____#______\n___#_____#____#_____#\n_______#_____##___###\n##___##_____#________\n_____#_____#____##___\n____#_____#_____#____\n___#___#_______#_____\n________#____________\n________#_____#______\n#_______#____##_____#'
p25
aS'_______#______#\n_______#_______\n_______#_______\n___#____#______\n###_________###\n_____##___#____\n_____#_________\n_____#___#_____\n_________#_____\n____#___##_____\n###_________###\n______#____#___\n_______#_______\n_______#_______\n#______#_______'
p26
aS'_______#_______\n_______#_______\n_______#_______\n___#_____##____\n#_____#_______#\n____________###\n_____#_____#___\n____#_____#____\n___#_____#_____\n###____________\n#_______#_____#\n____##_____#___\n_______#_______\n_______#_______\n_______#_______'
p27
aS'________###____\n_________#_____\n_________#_____\n_____###_______\n#_____#________\n###___#________\n#___#____###___\n____#_____#____\n___###____#___#\n________#___###\n________#_____#\n_______###_____\n_____#_________\n_____#_________\n____###________'
p28
aS'_____#____#____\n_____#____#____\n__________#____\n###____#_______\n______#____#___\n____#____#_____\n____#___#___###\n_______________\n###___#___#____\n_____#____#____\n___#____#______\n_______#____###\n____#__________\n____#____#_____\n____#____#_____'
p29
aS'____#_____#____\n____#_____#____\n__________#____\n______#________\n####___###_____\n_____#______###\n_____#____#____\n_______________\n____#____#_____\n###______#_____\n_____###___####\n________#______\n____#__________\n____#_____#____\n____#_____#____'
p30
aS'___#_____#_____\n___#_____#_____\n_________#_____\n____#__________\n_______#___#___\n______###______\n_____#____#____\n###_________###\n____#____#_____\n______###______\n___#___#_______\n__________#____\n_____#_________\n_____#_____#___\n_____#_____#___'
p31
aS'_______##______#_____\n_______#_______#_____\n_______#_______#_____\n_____#_______#_____##\n____###_____#________\n_____#____#_____#____\n####_____#_____###___\n________#_______#____\n____#_________#_____#\n_______#____#_____###\n_____#___###___#_____\n###_____#____#_______\n#_____#_________#____\n____#_______#________\n___###_____#_____####\n____#_____#____#_____\n________#_____###____\n##_____#_______#_____\n_____#_______#_______\n_____#_______#_______\n_____#______##_______'
p32
aS'_________#_____\n_________#_____\n_________#_____\n_________#_____\n_____#___#_____\n#####_____#____\n_______#_______\n______###______\n_______#_______\n____#_____#####\n_____#___#_____\n_____#_________\n_____#_________\n_____#_________\n_____#_________'
p33
aS'____##_____#___\n___________#___\n___________#___\n_______##______\n_____#____#____\n____#____#_____\n___#___________\n###_________###\n___________#___\n_____#____#____\n____#____#_____\n______##_______\n___#___________\n___#___________\n___#_____##____'
p34
aS'_______#_______\n_______#_______\n_______#_______\n____________###\n####____#______\n_____#___#_____\n______#___#____\n____#_____#____\n____#___#______\n_____#___#_____\n______#____####\n###____________\n_______#_______\n_______#_______\n_______#_______'
p35
aS'____##____#____\n____#_____#____\n____#_____#____\n___________#___\n___#___###_____\n______#________\n###___#___#____\n##___________##\n____#___#___###\n________#______\n_____###___#___\n___#___________\n____#_____#____\n____#_____#____\n____#____##____'
p36
aS'_____#____#____\n_____#____#____\n__________#____\n##_____##______\n___#___________\n____##___#_____\n______#____####\n#_____________#\n####____#______\n_____#___##____\n___________#___\n______##_____##\n____#__________\n____#____#_____\n____#____#_____'
p37
aS'____#______#___\n____#______#___\n___________#___\n##____#___#____\n_____#_________\n_______###_____\n___##___#___###\n#_____________#\n###___#___##___\n_____###_______\n_________#_____\n____#___#____##\n___#___________\n___#______#____\n___#______#____'
p38
aS'______#______#_______\n______#______#_______\n_____________#_______\n_____#______#____#___\n_____#___#_______#___\n____#_____#_____#____\n___#____#_______#____\n##_____#______#______\n______#______#____###\n____#_______#________\n___#_____###_____#___\n________#_______#____\n###____#______#______\n______#______#_____##\n____#_______#____#___\n____#_____#_____#____\n___#_______#___#_____\n___#____#______#_____\n_______#_____________\n_______#______#______\n_______#______#______'
p39
aS'_________#_____\n_________#_____\n_________#_____\n___#____###____\n____#____#_____\n_____#_________\n______#____#___\n###____#____###\n___#____#______\n_________#_____\n_____#____#____\n____###____#___\n_____#_________\n_____#_________\n_____#_________'
p40
aS'_______________\n_______________\n_______________\n###____###_____\n______#___#____\n_____#_____#___\n____#__________\n###_________###\n__________#____\n___#_____#_____\n____#___#______\n_____###____###\n_______________\n_______________\n_______________'
p41
aS'______##_______\n_______#_______\n_______#_______\n##_________#___\n____#######____\n_______#____###\n___#___________\n_______#_______\n___________#___\n###____#_______\n____#######____\n___#_________##\n_______#_______\n_______#_______\n________#______'
p42
aS'____#_____##___\n____#_____#____\n____#__________\n#_____###______\n___#_____#_____\n___________#___\n_____#____#____\n###____#____###\n____#____#_____\n___#___________\n_____#_____#___\n______###_____#\n__________#____\n____#_____#____\n___##_____#____'
p43
aS'____#_____#____\n____#_____#____\n____#_____#____\n_____________##\n___#___##______\n###____________\n______#___##___\n_____#___#_____\n___##___#______\n____________###\n______##___#___\n##_____________\n____#_____#____\n____#_____#____\n____#_____#____'
p44
aS'___#____#______\n___#____#______\n___#____#______\n____________###\n____#_____##___\n______##_______\n####___________\n_____#___#_____\n___________####\n_______##______\n___##_____#____\n###____________\n______#____#___\n______#____#___\n______#____#___'
p45
aS'______#_______#______\n______#_______#______\n______________#______\n____#____#_____#_____\n####______###____#___\n#____________#_______\n_____###_____#_____##\n______#_______#______\n________#####___#____\n####____#___#___#____\n________#___#________\n____#___#___#____####\n____#___#####________\n______#_______#______\n##_____#_____###_____\n_______#____________#\n___#____###______####\n_____#_____#____#____\n______#______________\n______#_______#______\n______#_______#______'
p46
aS'________#______\n_______________\n_______________\n____#______#___\n_____##___#____\n___#_____#_____\n###_____#______\n_______#_______\n______#_____###\n_____#_____#___\n____#___##_____\n___#______#____\n_______________\n_______________\n______#________'
p47
aS'________#______\n________#______\n________#______\n###________#___\n_____#____#____\n____#____#___##\n___#__________#\n_______#_______\n#__________#___\n##___#____#____\n____#____#_____\n___#________###\n______#________\n______#________\n______#________'
p48
aS'_____#___#_____\n_____#___#_____\n_________#_____\n___#____#______\n###____#____###\n______________#\n______#___##___\n_____#___#_____\n___##___#______\n#______________\n###____#____###\n______#____#___\n_____#_________\n_____#___#_____\n_____#___#_____'
p49
aS'_____#___#_____\n_____#___#_____\n_____#_________\n__________#____\n####____#___###\n#_____##___#___\n#______________\n____##___##____\n______________#\n___#___##_____#\n###___#____####\n____#__________\n_________#_____\n_____#___#_____\n_____#___#_____'
p50
aS'____#____#_____\n____#____#_____\n____#____#_____\n___________#___\n______###______\n###___________#\n_____#____#____\n___##_____##___\n____#____#_____\n#___________###\n______###______\n___#___________\n_____#____#____\n_____#____#____\n_____#____#____'
p51
aS'____#_____#____\n____#_____#____\n__________#____\n##____#___#____\n_____#___#_____\n___#___________\n____#___#___###\n_______#_______\n###___#___#____\n___________#___\n_____#___#_____\n____#___#____##\n____#__________\n____#_____#____\n____#_____#____'
p52
aS'___#_______#_____#___\n___#_______#_____#___\n___________#_____#___\n______#___#______#___\n_____#_________#_____\n_______________#___##\n###____#___###_______\n___#____##____#______\n____#_____#_____#____\n______#__________#___\n#____#_________#____#\n___#__________#______\n____#_____#_____#____\n______#____##____#___\n_______###___#____###\n##___#_______________\n_____#_________#_____\n___#______#___#______\n___#_____#___________\n___#_____#_______#___\n___#_____#_______#___'
p53
aS'_________#_____\n_________#_____\n_________#_____\n_____##____#___\n____#__________\n____#_____#____\n####____##_____\n_______________\n_____##____####\n____#_____#____\n__________#____\n___#____##_____\n_____#_________\n_____#_________\n_____#_________'
p54
aS'____#____#_____\n____#____#_____\n_______________\n______#____#___\n##____#______##\n________#______\n___#_____#_____\n____#_____#____\n_____#_____#___\n______#________\n##______#____##\n___#____#______\n_______________\n_____#____#____\n_____#____#____'
p55
aS'______###______\n_______#_______\n_______#_______\n___#___#___#___\n_______#_______\n_______##______\n#____#________#\n######___######\n#________#____#\n______##_______\n_______#_______\n___#___#___#___\n_______#_______\n_______#_______\n______###______'
p56
aS'_____#____#____\n_____#____#____\n_____#____#____\n_______##______\n###______#____#\n#___#_______###\n_____##________\n___#_______#___\n________##_____\n###_______#___#\n#____#______###\n______##_______\n____#____#_____\n____#____#_____\n____#____#_____'
p57
aS'_____#_____#___\n_____#_____#___\n_____#_________\n____#___#______\n____________###\n###______#_____\n______#___##___\n_______#_______\n___##___#______\n_____#______###\n###____________\n______#___#____\n_________#_____\n___#_____#_____\n___#_____#_____'
p58
aS'____#______#___\n____#______#___\n___________#___\n###___#____#___\n_______###_____\n___#___________\n___###_______##\n____#_____#____\n##_______###___\n___________#___\n_____###_______\n___#____#___###\n___#___________\n___#______#____\n___#______#____'
p59
aS'______#____#___##____\n______#________#_____\n_______________#_____\n___#_____#____#______\n________#____#_______\n_____#_____________##\n###___##___##___#____\n____#____________#___\n____#___#_____##_____\n___#_____#___#______#\n__________#__________\n#______#___#_____#___\n_____##_____#___#____\n___#____________#____\n____#___##___##___###\n##_____________#_____\n_______#____#________\n______#____#_____#___\n_____#_______________\n_____#________#______\n____##___#____#______'
p60
aS'_________#_____\n_________#_____\n_________#_____\n___###____#____\n_______#_______\n______#____#___\n###___#________\n_____#___#_____\n________#___###\n___#____#______\n_______#_______\n____#____###___\n_____#_________\n_____#_________\n_____#_________'
p61
aS'____#_____#____\n____#_____#____\n__________#____\n___#_____#_____\n_______##______\n#______________\n###___#____#___\n____##___##____\n___#____#___###\n______________#\n______##_______\n_____#_____#___\n____#__________\n____#_____#____\n____#_____#____'
p62
aS'____#_____#____\n____#_____#____\n____#__________\n________##_____\n##_____#___#___\n______#____#___\n_____#______###\n____#_____#____\n###______#_____\n___#____#______\n___#___#_____##\n_____##________\n__________#____\n____#_____#____\n____#_____#____'
p63
aS'____#____#_____\n____#____#_____\n____#____#_____\n______________#\n###____#____###\n_______________\n______#____#___\n____##___##____\n___#____#______\n_______________\n###____#____###\n#______________\n_____#____#____\n_____#____#____\n_____#____#____'
p64
aS'______#____#___\n______#____#___\n___________#___\n##______###____\n____##_________\n___#___#_______\n______#_____###\n##___________##\n###_____#______\n_______#___#___\n_________##____\n____###______##\n___#___________\n___#____#______\n___#____#______'
p65
aS'______#____#____#____\n______#____#____#____\n______#_________#____\n___#__________#______\n____#___###____#_____\n##___#___#_____#____#\n_____#_______#____###\n______#_____###______\n______#______#_______\n______#____#_____#___\n#___##____#____##___#\n___#_____#____#______\n_______#______#______\n______###_____#______\n###____#_______#_____\n#____#_____#___#___##\n_____#____###___#____\n______#__________#___\n____#_________#______\n____#____#____#______\n____#____#____#______'
p66
aS'_______________\n_______________\n_______________\n#____#___#____#\n######___######\n_______________\n_______#_______\n______###______\n_______#_______\n_______________\n######___######\n#____#___#____#\n_______________\n_______________\n_______________'
p67
aS'___#______#____\n__________#____\n_______________\n____#___#______\n#_____#________\n_______#____###\n_____#_____#___\n____#_____#____\n___#_____#_____\n###____#_______\n________#_____#\n______#___#____\n_______________\n____#__________\n____#______#___'
p68
aS'_____#___#_____\n_________#_____\n_________#_____\n____#___#______\n####___________\n#____###_____##\n_____#____##___\n_______________\n___##____#_____\n##_____###____#\n___________####\n______#___#____\n_____#_________\n_____#_________\n_____#___#_____'
p69
aS'_____#_____#___\n_____#_____#___\n___________#___\n###___##_______\n#______________\n___###___##____\n________#___###\n_______#_______\n###___#________\n____##___###___\n______________#\n_______##___###\n___#___________\n___#_____#_____\n___#_____#_____'
p70
aS'_____#____#____\n_____#____#____\n__________#____\n______#________\n####___#___#___\n____#___#___###\n________#______\n_____#___#_____\n______#________\n###___#___#____\n___#___#___####\n________#______\n____#__________\n____#____#_____\n____#____#_____'
p71
aS'____#____#_____\n____#____#_____\n_________#_____\n_____#____#____\n______#______##\n###____#_______\n____#___#______\n___#_______#___\n______#___#____\n_______#____###\n##______#______\n____#____#_____\n_____#_________\n_____#____#____\n_____#____#____'
p72
aS'_____##_____#____#___\n______#_____#____#___\n____________#________\n___##_____#__________\n__________##____#____\n_____#___##____#_____\n##______#____________\n______###____##___###\n______#_____#______##\n_____#______________#\n___##____###____##___\n#______________#_____\n##______#_____#______\n###___##____###______\n____________#______##\n_____#____##___#_____\n____#____##__________\n__________#_____##___\n________#____________\n___#____#_____#______\n___#____#_____##_____'
p73
aS'___________#___\n___________#___\n___________#___\n____##_________\n___#___##_____#\n###___#___#____\n#________#_____\n_______________\n_____#________#\n____#___#___###\n#_____##___#___\n_________##____\n___#___________\n___#___________\n___#___________'
p74
aS'___#___________\n___#___________\n___#___________\n____#___#______\n_______#____###\n______#________\n_____#_____#___\n____#_____#____\n___#_____#_____\n________#______\n###____#_______\n______#___#____\n___________#___\n___________#___\n___________#___'
p75
aS'_____#____#____\n_____#____#____\n_____#_________\n______#________\n##____##_______\n________#___###\n___#_____#_____\n____#_____#____\n_____#_____#___\n###___#________\n_______##____##\n________#______\n_________#_____\n____#____#_____\n____#____#_____'
p76
aS'____#______#___\n____#______#___\n___________#___\n___#____##___##\n_____#_________\n______##_______\n###_______#____\n___#_______#___\n____#_______###\n_______##______\n_________#_____\n##___##____#___\n___#___________\n___#______#____\n___#______#____'
p77
aS'___#_____#_____\n___#_____#_____\n___#_____#_____\n________#_____#\n_____###_______\n____#_____##___\n###______#_____\n#_____________#\n_____#______###\n___##_____#____\n_______###_____\n#_____#________\n_____#_____#___\n_____#_____#___\n_____#_____#___'
p78
aS'___#___##______\n___#___#_______\n_______#_______\n_____#_____#___\n##________#____\n____#____#___##\n___#____#___###\n___#_______#___\n###___#____#___\n##___#____#____\n____#________##\n___#_____#_____\n_______#_______\n_______#___#___\n______##___#___'
p79
aS'_____#_____##____#___\n_____#_____#_____#___\n___________#_________\n___##_____#__________\n________##____###____\n###__________#______#\n#____###_____#____###\n____________#____#___\n___#_______#_________\n___#____#_____###____\n_____#____#____#_____\n____###_____#____#___\n_________#_______#___\n___#____#____________\n###____#_____###____#\n#______#__________###\n____###____##________\n__________#_____##___\n_________#___________\n___#_____#_____#_____\n___#____##_____#_____'
p80
aS'______#________\n______#________\n______#________\n___#_______#___\n____#_____#____\n_____#___#_____\n________#___###\n_______#_______\n###___#________\n_____#___#_____\n____#_____#____\n___#_______#___\n________#______\n________#______\n________#______'
p81
aS'________#______\n________#______\n________#______\n##_____#___#___\n______#_____###\n_____#_________\n____#__________\n___#_______#___\n__________#____\n_________#_____\n###_____#______\n___#___#_____##\n______#________\n______#________\n______#________'
p82
aS'____#_____#____\n____#_____#____\n____#_____#____\n____#___#______\n_______#____###\n##____#________\n_____#_____#___\n____#_____#____\n___#_____#_____\n________#____##\n###____#_______\n______#___#____\n____#_____#____\n____#_____#____\n____#_____#____'
p83
aS'____#_____#____\n____#_____#____\n____#__________\n_____#___#_____\n##____#______##\n___#_______#___\n________#______\n____##___##____\n______#________\n___#_______#___\n##______#____##\n_____#___#_____\n__________#____\n____#_____#____\n____#_____#____'
p84
aS'____#____#_____\n____#____#_____\n_________#_____\n_____________##\n___#___##______\n###___#____#___\n##_____________\n____##___##____\n_____________##\n___#____#___###\n______##___#___\n##_____________\n_____#_________\n_____#____#____\n_____#____#____'
p85
aS'____#____#_____\n____#____#_____\n____#____#_____\n_____________##\n___#___##______\n_____#_____#___\n###___#___#____\n_______________\n____#___#___###\n___#_____#_____\n______##___#___\n##_____________\n_____#____#____\n_____#____#____\n_____#____#____'
p86
aS'____#_______#___#____\n____#_______#________\n____________#________\n_______##___#________\n###____#____#____####\n_____##______________\n____#____###____#____\n_____________###_____\n___#____#___#____#___\n_______#_____________\n###______###______###\n_____________#_______\n___#____#___#____#___\n_____###_____________\n____#____###____#____\n______________##_____\n####____#____#____###\n________#___##_______\n________#____________\n________#_______#____\n____#___#_______#____'
p87
aS'_________#_____\n_________#_____\n_________#_____\n_____##____#___\n____#_____#____\n####___#_______\n________#______\n_______________\n______#________\n_______#___####\n____#_____#____\n___#____##_____\n_____#_________\n_____#_________\n_____#_________'
p88
aS'____#_____#____\n____#_____#____\n_______________\n___#____##_____\n______#______##\n##____#________\n_____#____##___\n_______________\n___##____#_____\n________#____##\n##______#______\n_____##____#___\n_______________\n____#_____#____\n____#_____#____'
p89
aS'_____#_____#___\n_____#_____#___\n___________#___\n___#______#____\n____#__________\n____######_____\n____#______####\n_______________\n####______#____\n_____######____\n__________#____\n____#______#___\n___#___________\n___#_____#_____\n___#_____#_____'
p90
aS'_____#____#____\n_____#____#____\n_______________\n###___#____#___\n_______#_______\n____#_____#____\n___#____##___##\n#_____________#\n##___##____#___\n____#_____#____\n_______#_______\n___#____#___###\n_______________\n____#____#_____\n____#____#_____'
p91
aS'____#____##____\n____#____#_____\n____#____#_____\n___________#___\n______##____###\n###____##______\n__________#____\n_____#___#_____\n____#__________\n______##____###\n###____##______\n___#___________\n_____#____#____\n_____#____#____\n____##____#____'
p92
aS'____#____#_____\n____#____#_____\n____#____#_____\n___________#___\n###___#_____###\n___#___#_______\n____#____#_____\n_______________\n_____#____#____\n_______#___#___\n###_____#___###\n___#___________\n_____#____#____\n_____#____#____\n_____#____#____'
p93
aS'_____#____#____#_____\n_____#____#____#_____\n__________#__________\n___#______#______#___\n____#_____#_____#____\n##___#____#____#___##\n______#___#___#______\n_______#_____#_______\n________#___#________\n_________#__________#\n#######___#___#######\n#__________#_________\n________#___#________\n_______#_____#_______\n______#___#___#______\n##___#____#____#___##\n____#_____#_____#____\n___#______#______#___\n__________#__________\n_____#____#____#_____\n_____#____#____#_____'
p94
aS'______#_______#\n______#________\n______#________\n____#____#_____\n___#____###____\n_______#___#___\n###____________\n#_____________#\n____________###\n___#___#_______\n____###____#___\n_____#____#____\n________#______\n________#______\n#_______#______'
p95
aS'_________#_____\n_________#_____\n_________#_____\n______#____#___\n____##____#____\n###_______#____\n#_______#______\n_______#_______\n______#_______#\n____#_______###\n____#____##____\n___#____#______\n_____#_________\n_____#_________\n_____#_________'
p96
aS'___#_____#_____\n___#_____#_____\n___#_____#_____\n___#___#___#___\n_______#_______\n____##____#____\n______#_____###\n___#_______#___\n###_____#______\n____#____##____\n_______#_______\n___#___#___#___\n_____#_____#___\n_____#_____#___\n_____#_____#___'
p97
aS'_____#____#____\n_____#____#____\n_____#____#____\n______________#\n###___##____###\n________#______\n___##__________\n_____#___#_____\n__________##___\n______#________\n###____##___###\n#______________\n____#____#_____\n____#____#_____\n____#____#_____'
p98
aS'_____#___##____\n_____#___#_____\n_________#_____\n____#_______###\n______#________\n___#___#___#___\n###_____##_____\n#_____________#\n_____##_____###\n___#___#___#___\n________#______\n###_______#____\n_____#_________\n_____#___#_____\n____##___#_____'
p99
aS'#_____#####____##____\n_______###_____##____\n________#_______#____\n____#________________\n____#_______##_______\n_____#_____#______###\n______#___#_____#____\n###____###____#______\n____#____#_____#_____\n____#____#___#___#___\n____#___________#____\n___#___#___#____#____\n_____#_____#____#____\n______#____###____###\n____#_____#___#______\n###______#_____#_____\n_______##_______#____\n________________#____\n____#_______#________\n____##_____###_______\n____##____#####_____#'
p100
aS'_______##______\n_______#_______\n_______#_______\n_______#_______\n____#____#_____\n____##____#____\n#____#________#\n####_______####\n#________#____#\n____#____##____\n_____#____#____\n_______#_______\n_______#_______\n_______#_______\n______##_______'
p101
aS'_________#_____\n_________#_____\n_______________\n___#____#_____#\n____#_____#____\n_____#_____#___\n##____#____#___\n_______#_______\n___#____#____##\n___#_____#_____\n____#_____#____\n#_____#____#___\n_______________\n_____#_________\n_____#_________'
p102
aS'_____#____##___\n_____#_____#___\n_____#_____#___\n#______#_______\n###______#____#\n____#___#______\n_____#_____#___\n___#___#___#___\n___#_____#_____\n______#___#____\n#____#______###\n_______#______#\n___#_____#_____\n___#_____#_____\n___##____#_____'
p103
aS'_____#_____#___\n_____#_____#___\n___________#___\n___#____##_____\n___#___________\n##____#_____###\n_____#____#____\n_______#_______\n____#____#_____\n###_____#____##\n___________#___\n_____##____#___\n___#___________\n___#_____#_____\n___#_____#_____'
p104
aS'_____#____#____\n_____#____#____\n_____#_________\n______##_______\n___#____#_____#\n###_______##___\n_____#___#_____\n_____#___#_____\n_____#___#_____\n___##_______###\n#_____#____#___\n_______##______\n_________#_____\n____#____#_____\n____#____#_____'
p105
aS'____#____#_____\n____#____#_____\n_________#_____\n_____#___#_____\n###___##____###\n#______________\n___#____#______\n____##___##____\n______#____#___\n______________#\n###____##___###\n_____#___#_____\n_____#_________\n_____#____#____\n_____#____#____'
p106
aS'___##_____##____#____\n____#_____##____#____\n____#______#_________\n________#_____#______\n##_____#____#______##\n______#_____#____#___\n____#______#____#____\n____#____#_____#_____\n____#____#_____#_____\n___#_________##______\n###_____#___#_____###\n______##_________#___\n_____#_____#____#____\n_____#_____#____#____\n____#____#______#____\n___#____#_____#______\n##______#____#_____##\n______#_____#________\n_________#______#____\n____#____##_____#____\n____#____##_____##___'
p107
aS'_________#_____\n_________#_____\n_________#_____\n___#____###____\n____#____#_____\n_____#______###\n______#____#___\n_______#_______\n___#____#______\n###______#_____\n_____#____#____\n____###____#___\n_____#_________\n_____#_________\n_____#_________'
p108
aS'______#________\n______#________\n______#________\n___#_____#_____\n____#_____#____\n_____#_____#___\n______#_____###\n_______________\n###_____#______\n___#_____#_____\n____#_____#____\n_____#_____#___\n________#______\n________#______\n________#______'
p109
aS'____#_____#____\n____#_____#____\n____#_____#____\n________#______\n####________###\n_____##____#___\n______#___#____\n_______#_______\n____#___#______\n___#____##_____\n###________####\n______#________\n____#_____#____\n____#_____#____\n____#_____#____'
p110
aS'____#___#______\n________#______\n________#______\n_____#______###\n____#__________\n###___##___#___\n#_________#____\n_____#___#_____\n____#_________#\n___#___##___###\n__________#____\n###______#_____\n______#________\n______#________\n______#___#____'
p111
aS'______#________\n______#________\n_______________\n___##___#___###\n#____#___#_____\n###___#___#____\n_______________\n___#___#___#___\n_______________\n____#___#___###\n_____#___#____#\n###___#___##___\n_______________\n________#______\n________#______'
p112
aS'____#_____#____\n____#_____#____\n____#_____#____\n##_____________\n___#___###_____\n_____________##\n_____##____####\n____#_____#____\n####____##_____\n##_____________\n_____###___#___\n_____________##\n____#_____#____\n____#_____#____\n____#_____#____'
p113
aS'___#_____#_______#___\n___#_____#_______#___\n___#_____#___________\n____#_____#____#_____\n______#______##______\n________#____________\n##_____#___##____####\n___#______#____#_____\n______#_________#____\n_____#___#______#____\n_______#_____#_______\n____#______#___#_____\n____#_________#______\n_____#____#______#___\n####____##___#_____##\n____________#________\n______##______#______\n_____#____#_____#____\n___________#_____#___\n___#_______#_____#___\n___#_______#_____#___'
p114
aS'_________##____\n__________#____\n__________#____\n___#___#_______\n____#___#______\n_____#_________\n______#_____###\n#______#______#\n###_____#______\n_________#_____\n______#___#____\n_______#___#___\n____#__________\n____#__________\n____##_________'
p115
aS'_________#_____\n_________#_____\n_________#_____\n____#__________\n###____##____##\n___#_______#___\n_____#____#____\n_______________\n____#____#_____\n___#_______#___\n##____##____###\n__________#____\n_____#_________\n_____#_________\n_____#_________'
p116
aS'___#_____#_____\n___#_____#_____\n___#_____#_____\n_____#______###\n_______##______\n###___#____#___\n____#____#_____\n____#_____#____\n_____#____#____\n___#____#___###\n______##_______\n###______#_____\n_____#_____#___\n_____#_____#___\n_____#_____#___'
p117
aS'______#____#___\n______#____#___\n___________#___\n____#__________\n##___#___#_____\n______###___###\n___#______#____\n_______________\n____#______#___\n###___###______\n_____#___#___##\n__________#____\n___#___________\n___#____#______\n___#____#______'
p118
aS'_____#____#____\n_____#____#____\n_____#____#____\n________#______\n###____#_______\n______#_____###\n___#_____#_____\n____#_____#____\n_____#_____#___\n###_____#______\n_______#____###\n______#________\n____#____#_____\n____#____#_____\n____#____#_____'
p119
aS'____#___#______\n____#___#______\n________#______\n______#___##___\n###____________\n____##______###\n___#___#_______\n______###______\n_______#___#___\n###______##____\n____________###\n___##___#______\n______#________\n______#___#____\n______#___#____'
p120
aS'____#____#____#______\n____#____#____#______\n______________#______\n##____#____#____#____\n_____#______#________\n_____________#____###\n___#____###___#______\n_______#_____________\n____#______#___##____\n###___#_____#________\n___#_____________#___\n________#_____#___###\n____##___#______#____\n_____________#_______\n______#___###____#___\n###____#_____________\n________#______#_____\n____#____#____#____##\n______#______________\n______#____#____#____\n______#____#____#____'
p121
aS'_________#_____\n_________#_____\n_________#_____\n_____#_________\n______#___#____\n___##______#___\n###_____#______\n_______#_______\n______#_____###\n___#______##___\n____#___#______\n_________#_____\n_____#_________\n_____#_________\n_____#_________'
p122
aS'_________#_____\n_________#_____\n_________#_____\n_____#_________\n___##___#______\n______#____#___\n#________#____#\n###____#____###\n#____#________#\n___#____#______\n______#___##___\n_________#_____\n_____#_________\n_____#_________\n_____#_________'
p123
aS'______##___#___\n______##___#___\n___________#___\n___##______#___\n____##_________\n_______###_____\n###_____#______\n#_____________#\n______#_____###\n_____###_______\n_________##____\n___#______##___\n___#___________\n___#___##______\n___#___##______'
p124
aS'_____#____#____\n_____#____#____\n__________#____\n___#_____#_____\n_______##____##\n###___________#\n_____##____#___\n____#_____#____\n___#____##_____\n#___________###\n##____##_______\n_____#_____#___\n____#__________\n____#____#_____\n____#____#_____'
p125
aS'____#____#_____\n____#____#_____\n_______________\n_____##____#___\n_______#_______\n###_____#___###\n_______________\n___###___###___\n_______________\n###___#_____###\n_______#_______\n___#____##_____\n_______________\n_____#____#____\n_____#____#____'
p126
aS'_____#____#___#______\n_____#________#______\n_____#________#______\n________#________#___\n###_______#_____#____\n____#_____#_____#____\n____###___#____#_____\n___#___#######____###\n_______#_____##______\n###____#_____#_______\n_______#_____#_______\n_______#_____#____###\n______##_____#_______\n###____#######___#___\n_____#____#___###____\n____#_____#_____#____\n____#_____#_______###\n___#________#________\n______#________#_____\n______#________#_____\n______#___#____#_____'
p127
aS'________##_____\n_________#_____\n_________#_____\n___##______#___\n_____#_____#___\n###___#___#____\n#________#_____\n_______________\n_____#________#\n____#___#___###\n___#_____#_____\n___#______##___\n_____#_________\n_____#_________\n_____##________'
p128
aS'______##_______\n______#________\n______#________\n____#__________\n#____#______###\n_________#_____\n___#______#____\n___#_______#___\n____#______#___\n_____#_________\n###______#____#\n__________#____\n________#______\n________#______\n_______##______'
p129
aS'______#________\n______#________\n_______________\n###_____##_____\n___#___#___#___\n____________###\n_____##___#___#\n#_____________#\n#___#___##_____\n###____________\n___#___#___#___\n_____##_____###\n_______________\n________#______\n________#______'
p130
aS'_____#___#_____\n_____#___#_____\n_________#_____\n___#_____#___##\n______#____#___\n____##_________\n###_____#______\n_______#_______\n______#_____###\n_________##____\n___#____#______\n##___#_____#___\n_____#_________\n_____#___#_____\n_____#___#_____'
p131
aS'_____#_____#___\n_____#_____#___\n___________#___\n_______##____##\n___#___________\n_____#___#_____\n###___#___#____\n_______________\n____#___#___###\n_____#___#_____\n___________#___\n##____##_______\n___#___________\n___#_____#_____\n___#_____#_____'
p132
aS'____#_____#____\n____#_____#____\n____#_____#____\n_________#_____\n###___#________\n_______##___###\n___##__________\n_____#___#_____\n__________##___\n###___##_______\n________#___###\n_____#_________\n____#_____#____\n____#_____#____\n____#_____#____'
p133
aS'_____#_____#____#____\n_____#_____#____#____\n________________#____\n_________#___________\n________#_____#______\n###___#________#_____\n____##____###_____###\n_____________#_______\n___#_____#______#____\n_______##______#_____\n##_________________##\n_____#______##_______\n____#______#_____#___\n_______#_____________\n###_____###____##____\n_____#________#___###\n______#_____#________\n___________#_________\n____#________________\n____#____#_____#_____\n____#____#_____#_____'
p134
aS'________#______\n________#______\n________#______\n____#____#_____\n####_________##\n______#___#____\n_____#_____#___\n_______________\n___#_____#_____\n____#___#______\n##_________####\n_____#____#____\n______#________\n______#________\n______#________'
p135
aS'______##_______\n_______#_______\n_______#_______\n##_____________\n___#____###___#\n____#_______###\n_____##________\n_______________\n________##_____\n###_______#____\n#___###____#___\n_____________##\n_______#_______\n_______#_______\n_______##______'
p136
aS'___#_____#_____\n___#_____#_____\n_________#_____\n______##_______\n____#___#_____#\n___#______##___\n###____________\n_____#___#_____\n____________###\n___##______#___\n#_____#___#____\n_______##______\n_____#_________\n_____#_____#___\n_____#_____#___'
p137
aS'____##____#____\n_____#____#____\n_____#____#____\n##_____________\n___#___###_____\n_____________##\n_____##____####\n____#_____#____\n####____##_____\n##_____________\n_____###___#___\n_____________##\n____#____#_____\n____#____#_____\n____#____##____'
p138
aS'_____#____#____\n_____#____#____\n_____#_________\n#_______##_____\n###____#_______\n____________###\n_____##____#___\n____#_____#____\n___#____##_____\n###____________\n_______#____###\n_____##_______#\n_________#_____\n____#____#_____\n____#____#_____'
p139
aS'#_____#______#_______\n______#______#_______\n______#______________\n____#_______#____#___\n___________#____#____\n___#____###____#_____\n###____#_____________\n#_____#_______#___###\n_____#_______#___#___\n____________#________\n____#____###____#____\n________#____________\n___#___#_______#_____\n###___#_______#_____#\n_____________#____###\n_____#____###____#___\n____#____#___________\n___#____#_______#____\n______________#______\n_______#______#______\n_______#______#_____#'
p140
aS'_______________\n_______________\n_______________\n_____#_____#___\n____#_____#____\n___#_____#_____\n________#______\n###____#____###\n______#________\n_____#_____#___\n____#_____#____\n___#_____#_____\n_______________\n_______________\n_______________'
p141
aS'____#____#_____\n_________#_____\n_________#_____\n_________#_____\n________#______\n###____#_______\n_____#_____#___\n____#_____#____\n___#_____#_____\n_______#____###\n______#________\n_____#_________\n_____#_________\n_____#_________\n_____#____#____'
p142
aS'____#_____#____\n____#_____#____\n____#_____#____\n______#________\n___#___##___###\n##_________#___\n_____#_____#___\n____#_____#____\n___#_____#_____\n___#_________##\n###___##___#___\n________#______\n____#_____#____\n____#_____#____\n____#_____#____'
p143
aS'____#____#_____\n____#____#_____\n_________#_____\n______#________\n_____#____##___\n________#______\n___##____#_____\n###____#____###\n_____#____##___\n______#________\n___##____#_____\n________#______\n_____#_________\n_____#____#____\n_____#____#____'
p144
aS'____#_____#____\n____#_____#____\n____#_____#____\n#______________\n###___###___###\n_______________\n_____#_____#___\n____#_____#____\n___#_____#_____\n_______________\n###___###___###\n______________#\n____#_____#____\n____#_____#____\n____#_____#____'
p145
aS'_____#____#____\n_____#____#____\n_____#____#____\n##____________#\n_______###_____\n____#__________\n____###____#___\n###_________###\n___#____###____\n__________#____\n_____###_______\n#____________##\n____#____#_____\n____#____#_____\n____#____#_____'
p146
aS'______#______#___#___\n______#______#_______\n_____________#_______\n___##_____#__________\n___#___###_____##____\n_____#______#________\n______#____##____####\n###___#______##_____#\n_________##____#_____\n___##___#______#_____\n_____________________\n_____#______#___##___\n_____#____##_________\n#_____##______#___###\n####____##____#______\n________#______#_____\n____##_____###___#___\n__________#_____##___\n_______#_____________\n_______#______#______\n___#___#______#______'
p147
aS'____#_____#____\n____#_____#____\n__________#____\n______#_______#\n_______##______\n____#____#_____\n___#___________\n###_________###\n___________#___\n_____#____#____\n______##_______\n#_______#______\n____#__________\n____#_____#____\n____#_____#____'
p148
aS'____#__________\n____#__________\n____#__________\n______#____#___\n_____#____#____\n___#_____#_____\n________#______\n###_________###\n______#________\n_____#_____#___\n____#____#_____\n___#____#______\n__________#____\n__________#____\n__________#____'
p149
aS'___#____#______\n___#____#______\n___#___________\n#_____#___##___\n____#______#___\n_______________\n_____#______###\n______###______\n###______#_____\n_______________\n___#______#____\n___##___#_____#\n___________#___\n______#____#___\n______#____#___'
p150
aS'_____#___##____\n_____#___#_____\n_____#___#_____\n____#____#_____\n___#___________\n##_____#____###\n______#___#____\n_____#___#_____\n____#___#______\n###____#_____##\n___________#___\n_____#____#____\n_____#___#_____\n_____#___#_____\n____##___#_____'
p151
aS'______#____#___\n______#____#___\n___________#___\n___#_____##____\n###____________\n______###____##\n____##_____#___\n_______________\n___#_____##____\n##____###______\n____________###\n____##_____#___\n___#___________\n___#____#______\n___#____#______'
p152
aS'_______#_____#_______\n_______#_____#_______\n_______#_____________\n##______###_____#____\n___##_________#______\n_____#_____##_____###\n______#____#_____#___\n_____________#_______\n##_____####_____#____\n________#_____##_____\n___#_____________#___\n_____##_____#________\n____#_____####_____##\n_______#_____________\n___#_____#____#______\n###_____##_____#_____\n______#_________##___\n____#_____###______##\n_____________#_______\n_______#_____#_______\n_______#_____#_______'
p153
aS'________#______\n________#______\n________#______\n______#_____###\n###____#___#___\n___##__________\n_____#_________\n_____#___#_____\n_________#_____\n__________##___\n___#___#____###\n###_____#______\n______#________\n______#________\n______#________'
p154
aS'____#____#_____\n____#____#_____\n____#__________\n____#__________\n_____##____####\n##________#____\n#_________#____\n_______#_______\n____#_________#\n____#________##\n####____##_____\n__________#____\n__________#____\n_____#____#____\n_____#____#____'
p155
aS'_______#_______\n_______#_______\n_______#_______\n___#_______#___\n_____#___#_____\n____#_____#____\n#______#______#\n###___###___###\n#______#______#\n____#_____#____\n_____#___#_____\n___#_______#___\n_______#_______\n_______#_______\n_______#_______'
p156
aS'______###______\n_______##______\n________#______\n___##___#______\n_____#_____#___\n______#____#___\n______#___#____\n###_________###\n____#___#______\n___#____#______\n___#_____#_____\n______#___##___\n______#________\n______##_______\n______###______'
p157
aS'____##_____#___\n_____#_____#___\n_____#_________\n_________#_____\n#_____###___###\n___#___#___#___\n____#__________\n_____#___#_____\n__________#____\n___#___#___#___\n###___###_____#\n_____#_________\n_________#_____\n___#_____#_____\n___#_____##____'
p158
aS'____#_____#____\n____#_____#____\n____#_____#____\n_________#_____\n##___#_________\n______###___###\n___#______#____\n_______________\n____#______#___\n###___###______\n_________#___##\n_____#_________\n____#_____#____\n____#_____#____\n____#_____#____'
p159
aS'____#____##___#______\n____#____#____#______\n____#_________#______\n______#_____#___#____\n#____#_____#____#____\n#_______#____#______#\n_______#_____#____###\n___##____#___#_______\n_____#____#____#_____\n##______#___#___#____\n________#___#________\n____#___#___#______##\n_____#____#____#_____\n_______#___#____##___\n###____#_____#_______\n#______#____#_______#\n____#____#_____#____#\n____#___#_____#______\n______#_________#____\n______#____#____#____\n______#___##____#____'
p160
aS'________#______\n________#______\n________#______\n____#__________\n___#_____##____\n#____#_____#___\n###___#________\n_______#_______\n________#___###\n___#_____#____#\n____##_____#___\n__________#____\n______#________\n______#________\n______#________'
p161
aS'__________##___\n__________#____\n__________#____\n___#___##______\n###___#________\n_____#___#_____\n____#__________\n___#_______#___\n__________#____\n_____#___#_____\n________#___###\n______##___#___\n____#__________\n____#__________\n___##__________'
p162
aS'___#___##______\n___#____#______\n___#____#______\n_____#____#____\n____#____#_____\n_______#_______\n______#____#___\n###_________###\n___#____#______\n_______#_______\n_____#____#____\n____#____#_____\n______#____#___\n______#____#___\n______##___#___'
p163
aS'____#_____#____\n____#_____#____\n__________#____\n#_____#____#___\n_____#___#_____\n___##__________\n_______##_____#\n###____#____###\n#_____##_______\n__________##___\n_____#___#_____\n___#____#_____#\n____#__________\n____#_____#____\n____#_____#____'
p164
aS'____#_____#____\n____#_____#____\n____#_____#____\n_____#____#____\n#______________\n___#___##___###\n___##____#_____\n_______________\n_____#____##___\n###___##___#___\n______________#\n____#____#_____\n____#_____#____\n____#_____#____\n____#_____#____'
p165
aS'_____##____#___\n___________#___\n___________#___\n___##____#_____\n###____###_____\n__________#____\n_____##____####\n_______________\n####____##_____\n____#__________\n_____###____###\n_____#____##___\n___#___________\n___#___________\n___#____##_____'
p166
aS'_____##______##______\n______#_______#______\n______________#______\n___#____###_____#____\n##_____#_____________\n_____#______##___####\n____#______#_________\n______________#______\n______#___#____##____\n___#____##___________\n###____#_____#____###\n___________##____#___\n____##____#___#______\n______#______________\n_________#______#____\n####___##______#_____\n_____________#_____##\n____#_____###____#___\n______#______________\n______#_______#______\n______##______##_____'
p167
aS'____#__________\n____#__________\n____#__________\n__________#____\n______####_____\n_____#_____#___\n###________#___\n___#_______#___\n___#________###\n___#_____#_____\n_____####______\n____#__________\n__________#____\n__________#____\n__________#____'
p168
aS'_____#_________\n_____#_________\n_____#_________\n____#____##____\n______###______\n###_________###\n_______________\n_______________\n_______________\n###_________###\n______###______\n____##____#____\n_________#_____\n_________#_____\n_________#_____'
p169
aS'_____#___##_____\n_____#____#_____\n_____#__________\n___##___________\n#_______#_______\n______##____####\n_______#___#____\n_____#____#_____\n_____#____#_____\n____#___#_______\n####____##______\n_______#_______#\n___________##___\n__________#_____\n_____#____#_____\n_____##___#_____'
p170
aS'____#_____#____\n____#_____#____\n____#__________\n___#____#___###\n___________#___\n______##_______\n###______##____\n#_____________#\n____##______###\n_______##______\n___#___________\n###___#____#___\n__________#____\n____#_____#____\n____#_____#____'
p171
aS'____##_____#___\n_____#_____#___\n___________#___\n______#___#____\n##_____________\n___#___##___###\n____#____#_____\n_______________\n_____#____#____\n###___##___#___\n_____________##\n____#___#______\n___#___________\n___#_____#_____\n___#_____##____'
p172
aS'____#____#_____\n____#____#_____\n_________#_____\n___#____#______\n___________####\n###___##___#___\n_____#_________\n____#_____#____\n_________#_____\n___#___##___###\n####___________\n______#____#___\n_____#_________\n_____#____#____\n_____#____#____'
p173
aS'____#____#___#_______\n____#____#___#_______\n_________#___________\n___#____##_____#_____\n___#____________#____\n____###___#______#___\n_______#___####___###\n###____#_____________\n#________#_____#_____\n________#_______#____\n___#_____________#___\n____#_______#________\n_____#_____#________#\n_____________#____###\n###___####___#_______\n___#______#___###____\n____#____________#___\n_____#_____##____#___\n___________#_________\n_______#___#____#____\n_______#___#____#____'
p174
aS'__________#____\n__________#____\n__________#____\n___#___##______\n_____#_____#___\n____#____#_____\n###___#________\n_______________\n________#___###\n_____#____#____\n___#_____#_____\n______##___#___\n____#__________\n____#__________\n____#__________'
p175
aS'_______##______\n________#______\n________#______\n______#____#___\n____##____#____\n###______#_____\n##_____________\n#_____________#\n_____________##\n_____#______###\n____#____##____\n___#____#______\n______#________\n______#________\n______##_______'
p176
aS'____#_____#____\n____#_____#____\n__________#____\n#____###_______\n###____________\n____#____#___##\n____#___#______\n___#_______#___\n______#___#____\n##___#____#____\n____________###\n_______###____#\n____#__________\n____#_____#____\n____#_____#____'
p177
aS'_____#_____#___\n_____#_____#___\n_______________\n____#___#______\n####___#____###\n#______________\n______#___##___\n_____#___#_____\n___##___#______\n______________#\n###____#___####\n______#___#____\n_______________\n___#_____#_____\n___#_____#_____'
p178
aS'____#______#___\n____#______#___\n___________#___\n###_____###____\n_______#_______\n____#__________\n_____##____####\n_______________\n####____##_____\n__________#____\n_______#_______\n____###_____###\n___#___________\n___#______#____\n___#______#____'
p179
aS'_____###____#___#____\n______#_____#________\n______#_____#________\n__________________###\n____#___##______##___\n_____#____##___#_____\n___#_________________\n####___#____##_______\n___#____#____#_____##\n___________#___##____\n______#___#___#______\n____##___#___________\n##_____#____#____#___\n_______##____#___####\n_________________#___\n_____#___##____#_____\n___##______##___#____\n###__________________\n________#_____#______\n________#_____#______\n____#___#____###_____'
p180
aS'________##_____\n_________#_____\n_________#_____\n###____#_______\n____###____#___\n___#__________#\n________#____##\n_______#_______\n##____#________\n#__________#___\n___#____###____\n_______#____###\n_____#_________\n_____#_________\n_____##________'
p181
aS'##___________##\n#_____________#\n_______________\n_______#_______\n___#########___\n_______#_______\n#_____________#\n###_________###\n#_____________#\n_______#_______\n___#########___\n_______#_______\n_______________\n#_____________#\n##___________##'
p182
aS'___#____#______\n________#______\n________#______\n____#______####\n####___#___#___\n_____#___#_____\n______#___#____\n_______________\n____#___#______\n_____#___#_____\n___#___#___####\n####______#____\n______#________\n______#________\n______#____#___'
p183
aS'____#____#_____\n____#____#_____\n____#__________\n_____###___#___\n##_____________\n________#___###\n___#_____##____\n_______________\n____##_____#___\n###___#________\n_____________##\n___#___###_____\n__________#____\n_____#____#____\n_____#____#____'
p184
aS'_____#____#____\n_____#____#____\n_____#____#____\n______________#\n___#___##____##\n###____________\n______#___##___\n_____#___#_____\n___##___#______\n____________###\n##____##___#___\n#______________\n____#____#_____\n____#____#_____\n____#____#_____'
p185
aS'______#_______#______\n______#_______#______\n______________#______\n_____#_____###_______\n###____###______#____\n____#________________\n______#___#______####\n___________###_______\n_______#______#______\n####____##___________\n____##_________##____\n___________##____####\n______#______#_______\n_______###___________\n####______#___#______\n________________#____\n____#______###____###\n_______###_____#_____\n______#______________\n______#_______#______\n______#_______#______'
p186
aS'_____#____#____\n_____#____#____\n__________#____\n____#__________\n___##____#_____\n##__________###\n______#____#___\n_______#_______\n___#____#______\n###__________##\n_____#____##___\n__________#____\n____#__________\n____#____#_____\n____#____#_____'
p187
aS'__________##___\n__________#____\n__________#____\n___#____#______\n_______#_______\n###___#________\n_____#_____#___\n____#_____#____\n___#_____#_____\n________#___###\n_______#_______\n______#____#___\n____#__________\n____#__________\n___##__________'
p188
aS'_____#____#____\n_____#____#____\n_____#____#____\n##_____________\n_______##______\n______#_____###\n___#___________\n____##___##____\n___________#___\n###_____#______\n______##_______\n_____________##\n____#____#_____\n____#____#_____\n____#____#_____'
p189
aS'____#____#_____\n____#____#_____\n____#____#_____\n_______#____###\n______#________\n___#______#____\n###_____##_____\n##___________##\n_____##_____###\n____#______#___\n________#______\n###____#_______\n_____#____#____\n_____#____#____\n_____#____#____'
p190
aS'____#____#_____\n____#____#_____\n_________#_____\n_____#_____#___\n###___________#\n______###____##\n___##__________\n_____#___#_____\n__________##___\n##____###______\n#___________###\n___#_____#_____\n_____#_________\n_____#____#____\n_____#____#____'
p191
aS'____#_____#____\n____#_____#____\n____#__________\n____#___##_____\n___________#___\n###____#____###\n_____##___#____\n_______________\n____#___##_____\n###____#____###\n___#___________\n_____##___#____\n__________#____\n____#_____#____\n____#_____#____'
p192
aS'___#___#____##_______\n___#___#____#________\n____________#________\n___________#_____####\n_____#____#_____#____\n#####____#___________\n____________##_______\n_______##_____##_____\n_____##___##_____#___\n____#______#______###\n#___________________#\n###______#______#____\n___#_____##___##_____\n_____##_____##_______\n_______##____________\n___________#____#####\n____#_____#____#_____\n####_____#___________\n________#____________\n________#____#___#___\n_______##____#___#___'
p193
aS'_________#_____\n_________#_____\n_________#_____\n___#______#____\n____#______#___\n______##_______\n###___#________\n_____#___#_____\n________#___###\n_______##______\n___#______#____\n____#______#___\n_____#_________\n_____#_________\n_____#_________'
p194
aS'________#______\n________#______\n________#______\n____#________##\n_____#_____#___\n###___#___#____\n_________#_____\n_______________\n_____#_________\n____#___#___###\n___#_____#_____\n##________#____\n______#________\n______#________\n______#________'
p195
aS'____#_____#____\n____#_____#____\n____#_____#____\n__________#____\n###___######___\n__________#____\n____#_____#____\n____#_____#____\n____#_____#____\n____#__________\n___######___###\n____#__________\n____#_____#____\n____#_____#____\n____#_____#____'
p196
aS'___#_____#_____\n___#_____#_____\n___#_____#_____\n_______#___#___\n##_____#_______\n______#_____###\n_____#____#____\n___#_______#___\n____#____#_____\n###_____#______\n_______#_____##\n___#___#_______\n_____#_____#___\n_____#_____#___\n_____#_____#___'
p197
aS'____#____#_____\n____#____#_____\n____#____#_____\n_______________\n______#_____###\n####____#______\n_____#____#____\n_______#_______\n____#____#_____\n______#____####\n###_____#______\n_______________\n_____#____#____\n_____#____#____\n_____#____#____'
p198
aS'____#____##____\n____#____#_____\n_________#_____\n______#____#___\n_____#_________\n###_____#____##\n___##____#_____\n_______#_______\n_____#____##___\n##____#_____###\n_________#_____\n___#____#______\n_____#_________\n_____#____#____\n____##____#____'
p199
aS'____#_____#____#_____\n____#_____#____#_____\n__________#__________\n###___#____#_________\n____________#____####\n___#___###___#_______\n____#____#___________\n_____##________#_____\n__________##____#____\n___#____#____##______\n###_______________###\n______##____#____#___\n____#____##__________\n_____#________##_____\n___________#____#____\n_______#___###___#___\n####____#____________\n_________#____#___###\n__________#__________\n_____#____#_____#____\n_____#____#_____#____'
p200
aS'__________#____\n__________#____\n__________#____\n____#___##_____\n_____##____#___\n####_______#___\n__________#____\n_______________\n____#__________\n___#_______####\n___#____##_____\n_____##___#____\n____#__________\n____#__________\n____#__________'
p201
aS'_________#_____\n_________#_____\n_________#_____\n___#_____#_____\n____#__________\n_____#_____#___\n###___#___#____\n_______#_______\n____#___#___###\n___#_____#_____\n__________#____\n_____#_____#___\n_____#_________\n_____#_________\n_____#_________'
p202
aS'________#______\n________#______\n________#______\n####_____#_____\n______##_______\n_____#______###\n_____#____#____\n___#_______#___\n____#____#_____\n###______#_____\n_______##______\n_____#_____####\n______#________\n______#________\n______#________'
p203
aS'_____#_____#___\n_____#_____#___\n___________#___\n_______#_______\n###___#___#____\n_____________##\n____#___##_____\n___#_______#___\n_____##___#____\n##_____________\n____#___#___###\n_______#_______\n___#___________\n___#_____#_____\n___#_____#_____'
p204
aS'____#_____#____\n____#_____#____\n__________#____\n#________#_____\n___#____#______\n___#___#___#___\n____###_____###\n#_____________#\n###_____###____\n___#___#___#___\n______#____#___\n_____#________#\n____#__________\n____#_____#____\n____#_____#____'
p205
aS'____#______#____#____\n____#______#____#____\n___________#_________\n#______#______#______\n###___##_____#___#___\n___#_____#___________\n__________###_____###\n____##____#____##____\n________#____________\n##_______#___##______\n___#_____________#___\n______##___#_______##\n____________#________\n____##____#____##____\n###_____###__________\n___________#_____#___\n___#___#_____##___###\n______#______#______#\n_________#___________\n____#____#______#____\n____#____#______#____'
p206
aS'________#______\n________#______\n________#______\n___#______#____\n____##_______##\n###______#_____\n________#______\n_______#_______\n______#________\n_____#______###\n##_______##____\n____#______#___\n______#________\n______#________\n______#________'
p207
aS'______#________\n_______________\n_______________\n____#______#___\n__________#____\n___#_____#_____\n#_______#______\n_______#_______\n______#_______#\n_____#_____#___\n____#__________\n___#______#____\n_______________\n_______________\n________#______'
p208
aS'_______###_____\n_______#_______\n_______________\n###___#___#____\n____#______#___\n___#___##___###\n_______________\n_____#___#_____\n_______________\n###___##___#___\n___#______#____\n____#___#___###\n_______________\n_______#_______\n_____###_______'
p209
aS'___#____#______\n___#____#______\n___#___________\n_______#____###\n____#____##____\n_____#_________\n###_____#______\n___#_______#___\n______#_____###\n_________#_____\n____##____#____\n###____#_______\n___________#___\n______#____#___\n______#____#___'
p210
aS'____#_____#____\n____#_____#____\n__________#____\n___#____##_____\n_____#_________\n###____#_____##\n______#___##___\n_______________\n___##___#______\n##_____#____###\n_________#_____\n_____##____#___\n____#__________\n____#_____#____\n____#_____#____'
p211
aS'______#_______#______\n______#_______#______\n______________#______\n#______##_______##___\n#####_______##_______\n___________#_______##\n_____#___#____#______\n_____#____#___#______\n###___#___#_____#____\n_______#____#____#___\n___#___#_____#___#___\n___#____#____#_______\n____#_____#___#___###\n______#___#____#_____\n______#____#___#_____\n##_______#___________\n_______##_______#####\n___##_______##______#\n______#______________\n______#_______#______\n______#_______#______'
p212
aS'_________#_____\n_________#_____\n_________#_____\n____#____#_____\n####______##___\n_______#______#\n________#______\n_____#___#_____\n______#________\n#______#_______\n___##______####\n_____#____#____\n_____#_________\n_____#_________\n_____#_________'
p213
aS'_____#____#____\n_____#____#____\n__________#____\n___#______#____\n####_____#_____\n____##___#___##\n_______________\n_______________\n_______________\n##___#___##____\n_____#_____####\n____#______#___\n____#__________\n____#____#_____\n____#____#_____'
p214
aS'_______#_______\n_______#_______\n_______#_______\n___##____#_____\n__________#____\n###___#______##\n_____##________\n___#___#___#___\n________##_____\n##______#___###\n____#__________\n_____#____##___\n_______#_______\n_______#_______\n_______#_______'
p215
aS'_____#____##___\n_____#____#____\n_______________\n___##___##_____\n#_____________#\n###____#___####\n_____##___#____\n_______________\n____#___##_____\n####___#____###\n#_____________#\n_____##___##___\n_______________\n____#____#_____\n___##____#_____'
p216
aS'____##____#____\n____#_____#____\n____#_____#____\n_______#_______\n##______#___###\n___#_______#___\n_____##___#____\n_______________\n____#___##_____\n___#_______#___\n###___#______##\n_______#_______\n____#_____#____\n____#_____#____\n____#____##____'
p217
aS'_____#____#____\n_____#____#____\n__________#____\n____#____#_____\n###____##____##\n#______________\n_____##____#___\n____#_____#____\n___#____##_____\n______________#\n##____##____###\n_____#____#____\n____#__________\n____#____#_____\n____#____#_____'
p218
aS'_____#____#____###___\n_____#____#_____#____\n_____________________\n#___________________#\n###___#______#_______\n______#_____#________\n___#___#___#____##___\n____#___###____#_____\n_____#___#___##___###\n___________________##\n#___________________#\n##___________________\n###___##___#___#_____\n_____#____###___#____\n___##____#___#___#___\n________#_____#______\n_______#______#___###\n#___________________#\n_____________________\n____#_____#____#_____\n___###____#____#_____'
p219
aS'_________#_____\n_________#_____\n_________#_____\n____#____#_____\n___#______#____\n_____#_____#___\n###___#________\n_______#_______\n________#___###\n___#_____#_____\n____#______#___\n_____#____#____\n_____#_________\n_____#_________\n_____#_________'
p220
aS'##___________##\n#_____________#\n_______________\n______#____#___\n____##____#____\n###____###_____\n________#______\n___#_______#___\n______#________\n_____###____###\n____#____##____\n___#____#______\n_______________\n#_____________#\n##___________##'
p221
aS'____#____#_____\n____#____#_____\n_________#_____\n##______#______\n___#___________\n___#___#____###\n______#___#____\n_____#___#_____\n____#___#______\n###____#___#___\n___________#___\n______#______##\n_____#_________\n_____#____#____\n_____#____#____'
p222
aS'____#____#_____\n____#____#_____\n_______________\n______#____#___\n___#___#____###\n___#___________\n###_____#______\n____##___##____\n______#_____###\n___________#___\n###____#___#___\n___#____#______\n_______________\n_____#____#____\n_____#____#____'
p223
aS'_____#___##____\n_____#___#_____\n_________#_____\n___#___________\n###___###___###\n_____#_________\n_____#____#____\n_____#___#_____\n____#____#_____\n_________#_____\n###___###___###\n___________#___\n_____#_________\n_____#___#_____\n____##___#_____'
p224
aS'_____#____#____\n_____#____#____\n__________#____\n____#___#______\n####___________\n______##___####\n_____#____#____\n_______________\n____#____#_____\n####___##______\n___________####\n______#___#____\n____#__________\n____#____#_____\n____#____#_____'
p225
aS'____#______#___###___\n____#______#____#____\n________________#____\n#____##_____#________\n___#___#_____________\n________#____#___#___\n____#____##___##_____\n____#_____________###\n###________#____#____\n_____##_____##___#___\n_____________________\n___#___##_____##_____\n____#____#________###\n###_____________#____\n_____##___##____#____\n___#___#____#________\n_____________#___#___\n________#_____##____#\n____#________________\n____#____#______#____\n___###___#______#____'
p226
aS'________#______\n________#______\n________#______\n_____#_______##\n____#_____#____\n###____________\n#_____#____#___\n_____#___#_____\n___#____#_____#\n____________###\n____#_____#____\n##_______#_____\n______#________\n______#________\n______#________'
p227
aS'_______#_______\n_______#_______\n_______#_______\n_____#####_____\n_______#_______\n____#_____#____\n____#_____#____\n#####_____#####\n____#_____#____\n____#_____#____\n_______#_______\n_____#####_____\n_______#_______\n_______#_______\n_______#_______'
p228
aS'________#______\n________#______\n________#______\n#####_____#____\n_____##____#___\n_________#_____\n________#___###\n_______#_______\n###___#________\n_____#_________\n___#____##_____\n____#_____#####\n______#________\n______#________\n______#________'
p229
aS'____#______#___\n____#______#___\n___________#___\n###________#___\n#____#___#_____\n______###____##\n___#______#____\n____#_____#____\n____#______#___\n##____###______\n_____#___#____#\n___#________###\n___#___________\n___#______#____\n___#______#____'
p230
aS'_____#____#____\n_____#____#____\n__________#____\n##____#________\n___#____##_____\n______________#\n____##_____####\n_______#_______\n####_____##____\n#______________\n_____##____#___\n________#____##\n____#__________\n____#____#_____\n____#____#_____'
p231
aS'____#_____#____\n____#_____#____\n____#_____#____\n#_____________#\n####___##___###\n#_____________#\n_____##____#___\n____#_____#____\n___#____##_____\n#_____________#\n###___##___####\n#_____________#\n____#_____#____\n____#_____#____\n____#_____#____'
p232
aS'______#_____#____#___\n______#_____#____#___\n______#__________#___\n##____#______________\n_______#___#____#____\n____#_____#__________\n___#____##___###_____\n__________________###\n_____###___#____##___\n###____#____#___#____\n_____________________\n____#___#____#____###\n___##____#___###_____\n###__________________\n_____###___##____#___\n__________#_____#____\n____#____#___#_______\n______________#____##\n___#__________#______\n___#____#_____#______\n___#____#_____#______'
p233
aS'_______________\n_______________\n_______________\n___#____#___###\n____##_________\n###___#___#____\n___________#___\n_______#_______\n___#___________\n____#___#___###\n_________##____\n###___#____#___\n_______________\n_______________\n_______________'
p234
aS'________##_____\n_________#_____\n_________#_____\n_________#_____\n______#________\n####____#______\n#____#____#____\n_______#_______\n____#____#____#\n______#____####\n________#______\n_____#_________\n_____#_________\n_____#_________\n_____##________'
p235
aS'____#_____#____\n____#_____#____\n____#__________\n____#___#______\n___#___#___#___\n______#________\n_____#____#____\n###_________###\n____#____#_____\n________#______\n___#___#___#___\n______#___#____\n__________#____\n____#_____#____\n____#_____#____'
p236
aS'_____#____#____\n_____#____#____\n__________#____\n###_____#______\n___#___________\n______##___####\n_____#____#____\n_______________\n____#____#_____\n####___##______\n___________#___\n______#_____###\n____#__________\n____#____#_____\n____#____#_____'
p237
aS'____#_____#____\n____#_____#____\n____#_____#____\n_____________##\n___#____##_____\n______#____#___\n____##_________\n###____#____###\n_________##____\n___#____#______\n_____##____#___\n##_____________\n____#_____#____\n____#_____#____\n____#_____#____'
p238
aS'______##____#____#___\n_______#____#____#___\n____________#________\n________#____##______\n_____#___#____#______\n#___#_____#__________\n####___#___#___#___##\n#_______#___#_____###\n______#______#_______\n_____#___#_______#___\n_____#_________#_____\n___#_______#___#_____\n_______#______#______\n###_____#___#_______#\n##___#___#___#___####\n__________#_____#___#\n______#____#___#_____\n______##____#________\n________#____________\n___#____#____#_______\n___#____#____##______'
p239
aS'_________#_____\n_________#_____\n_________#_____\n___#___#_______\n____#___#______\n____#_____#____\n###________#___\n_______#_______\n___#________###\n____#_____#____\n______#___#____\n_______#___#___\n_____#_________\n_____#_________\n_____#_________'
p240
aS'________##_____\n_________#_____\n_________#_____\n___#______#____\n____#_____#____\n_____#_____#___\n###___#________\n_______#_______\n________#___###\n___#_____#_____\n____#_____#____\n____#______#___\n_____#_________\n_____#_________\n_____##________'
p241
aS'_____#___#_____\n_____#___#_____\n_____#_________\n____#___#______\n###____#____###\n______#________\n______#____#___\n____#_____#____\n___#____#______\n________#______\n###____#____###\n______#___#____\n_________#_____\n_____#___#_____\n_____#___#_____'
p242
aS'_____#_____#___\n_____#_____#___\n___________#___\n____#___##_____\n###____________\n_____##___#____\n____________###\n___#___#___#___\n###____________\n____#___##_____\n____________###\n_____##___#____\n___#___________\n___#_____#_____\n___#_____#_____'
p243
aS'____##___##____\n____#____#_____\n____#____#_____\n_________#_____\n###_____#___###\n______##______#\n___#______#____\n_____#___#_____\n____#______#___\n#______##______\n###___#_____###\n_____#_________\n_____#____#____\n_____#____#____\n____##___##____'
p244
aS'____#___###_____#____\n____#____#______#____\n_________#___________\n______#_____###______\n_____#_______#___####\n###____#_____________\n____#_____#_____#____\n____#______##________\n_______________#____#\n___#___###____#____##\n###_______#_______###\n##____#____###___#___\n#____#_______________\n________##______#____\n____#_____#_____#____\n_____________#____###\n####___#_______#_____\n______###_____#______\n___________#_________\n____#______#____#____\n____#_____###___#____'
p245
aS'______#________\n______#________\n______#________\n______#____#___\n____#_____#____\n_________#_____\n___#____#______\n###____#____###\n______#____#___\n_____#_________\n____#_____#____\n___#____#______\n________#______\n________#______\n________#______'
p246
aS'__________#____\n__________#____\n__________#____\n____#____#_____\n________##_____\n####_____#_____\n#_____#________\n#______#______#\n________#_____#\n_____#_____####\n_____##________\n_____#____#____\n____#__________\n____#__________\n____#__________'
p247
aS'___#_____#_____\n___#_____#_____\n_________#_____\n______#____#___\n##_____#_______\n___#____#______\n____#_______###\n_____#___#_____\n###_______#____\n______#____#___\n_______#_____##\n___#____#______\n_____#_________\n_____#_____#___\n_____#_____#___'
p248
aS'____#___#______\n____#___#______\n________#______\n______#____#___\n_____#_________\n###____#_____##\n___#____###____\n_______________\n____###____#___\n##_____#____###\n_________#_____\n___#____#______\n______#________\n______#___#____\n______#___#____'
p249
aS'___#____#_____#\n___#____#______\n___#___________\n_______#___#___\n##___#_________\n____#____#_____\n______#_____###\n___#_______#___\n###_____#______\n_____#____#____\n_________#___##\n___#___#_______\n___________#___\n______#____#___\n#_____#____#___'
p250
aS'____#______#___\n____#______#___\n____#__________\n_____##___#____\n__________#____\n###____#_____##\n___##___##_____\n_______________\n_____##___##___\n##_____#____###\n____#__________\n____#___##_____\n__________#____\n___#______#____\n___#______#____'
p251
aS'______#____#____#____\n______#____#____#____\n___________#_________\n____#_______#____#___\n____#_____#____#___##\n####___###_____#_____\n______#______________\n_____________##______\n_____#____###___#____\n#______#____#____####\n#___________________#\n####____#____#______#\n____#___###____#_____\n______##_____________\n______________#______\n_____#_____###___####\n##___#____#_____#____\n___#____#_______#____\n_________#___________\n____#____#____#______\n____#____#____#______'
p252
aS'_________#_____\n_________#_____\n_________#_____\n___#____#______\n_____#_________\n____##____##___\n_____#______###\n______###______\n###______#_____\n___##____##____\n_________#_____\n______#____#___\n_____#_________\n_____#_________\n_____#_________'
p253
aS'____#_____#____\n__________#____\n__________#____\n_____#____#____\n##____####_____\n____#___#____##\n_______________\n_______________\n_______________\n##____#___#____\n_____####____##\n____#____#_____\n____#__________\n____#__________\n____#_____#____'
p254
aS'#______##______\n_______#_______\n_______________\n____#______#___\n###_____#___###\n______#______##\n_____#____#____\n_______#_______\n____#____#_____\n##______#______\n###___#_____###\n___#______#____\n_______________\n_______#_______\n______##______#'
p255
aS'____#_____#____\n____#_____#____\n_______________\n________##_____\n####___#_______\n___________####\n_____##___#____\n_______________\n____#___##_____\n####___________\n_______#___####\n_____##________\n_______________\n____#_____#____\n____#_____#____'
p256
aS'_____#_____#___\n_____#_____#___\n___________#___\n_______##______\n___##____#_____\n###____________\n#____##___##___\n#_____________#\n___##___##____#\n____________###\n_____#____##___\n______##_______\n___#___________\n___#_____#_____\n___#_____#_____'
p257
aS'____#______#___\n____#______#___\n___________#___\n_____##___#____\n###___###______\n____________###\n___##____#_____\n_____#___#_____\n_____#____##___\n###____________\n______###___###\n____#___##_____\n___#___________\n___#______#____\n___#______#____'
p258
aS'_____#_____#___#_____\n_____#_____#___#_____\n_______________#_____\n____#____#___________\n#______#______#______\n###___#___#_______###\n_____#_____###___#___\n____#___________#____\n____#____#_____#_____\n________#_____#______\n#______#_____#______#\n______#_____#________\n_____#_____#____#____\n____#___________#____\n___#___###_____#_____\n###_______#___#___###\n______#______#______#\n___________#____#____\n_____#_______________\n_____#___#_____#_____\n_____#___#_____#_____'
p259
aS'_______________\n_______________\n_______________\n___#___##___###\n###___#___#____\n_____#___###___\n_______________\n_______________\n_______________\n___###___#_____\n____#___#___###\n###___##___#___\n_______________\n_______________\n_______________'
p260
aS'_____#####_____\n______###______\n_______#_______\n_______#_______\n_______#_______\n#_____________#\n##___________##\n######___######\n##___________##\n#_____________#\n_______#_______\n_______#_______\n_______#_______\n______###______\n_____#####_____'
p261
aS'_______##______\n_______#_______\n_______#_______\n____#______#___\n___#____#___###\n###___#________\n_____#____#____\n____#_____#____\n____#____#_____\n________#___###\n###___#____#___\n___#______#____\n_______#_______\n_______#_______\n______##_______'
p262
aS'____#____#_____\n_________#_____\n_______________\n_____#____#___#\n###_____#___###\n___#___#_______\n______#________\n____##___##____\n________#______\n_______#___#___\n###___#_____###\n#___#____#_____\n_______________\n_____#_________\n_____#____#____'
p263
aS'___#_____#_____\n___#_____#_____\n___#_____#_____\n_____________##\n_____###___#___\n____#__________\n___#____##_____\n###_________###\n_____##____#___\n__________#____\n___#___###_____\n##_____________\n_____#_____#___\n_____#_____#___\n_____#_____#___'
p264
aS'_____#____#____#____#\n_____#____#____#_____\n_____#_______________\n____###_____###______\n___#_______#_____#___\n##______###_____#____\n_______#___________##\n______#_______#______\n_____#_______#_______\n####_______##________\n____#_____#_____#____\n________##_______####\n_______#_______#_____\n______#_______#______\n##___________#_______\n____#_____###______##\n___#_____#_______#___\n______###_____###____\n_______________#_____\n_____#____#____#_____\n#____#____#____#_____'
p265
aS'_______#_______\n_______#_______\n_______#_______\n___#_______#___\n____#_____#____\n_____#___#_____\n_______#_______\n###___###___###\n_______#_______\n_____#___#_____\n____#_____#____\n___#_______#___\n_______#_______\n_______#_______\n_______#_______'
p266
aS'_______##______\n_______#_______\n_______#_______\n______________#\n____#_____#____\n___#_______#___\n###_____#______\n_____#___#_____\n______#_____###\n___#_______#___\n____#_____#____\n#______________\n_______#_______\n_______#_______\n______##_______'
p267
aS'____#_____#____\n____#_____#____\n__________#____\n______#________\n###____##____##\n_____#___#_____\n____#______#___\n___#_______#___\n___#______#____\n_____#___#_____\n##____##____###\n________#______\n____#__________\n____#_____#____\n____#_____#____'
p268
aS'_____#____##___\n_____#_____#___\n_____#_________\n____________###\n____#___#______\n___#_____#_____\n###___#___#____\n#______#______#\n____#___#___###\n_____#_____#___\n______#___#____\n###____________\n_________#_____\n___#_____#_____\n___##____#_____'
p269
aS'____##____#____\n____#_____#____\n__________#____\n______#___#____\n_____#_______##\n###____##______\n____#____#_____\n___#_______#___\n_____#____#____\n______##____###\n##_______#_____\n____#___#______\n____#__________\n____#_____#____\n____#____##____'
p270
aS'____#______#_____#___\n____#______#_____#___\n_________________#___\n_______#_____#_______\n###_____###___###____\n______#______________\n____###____#_____#___\n___________##________\n___#____#___#_____###\n_______#______###___#\n__________#__________\n#___###______#_______\n###_____#___#____#___\n________##___________\n___#_____#____###____\n______________#______\n____###___###_____###\n_______#_____#_______\n___#_________________\n___#_____#______#____\n___#_____#______#____'
p271
aS'#_________#____\n__________#____\n__________#____\n_____##________\n____#______#___\n___#_____#_____\n###_____#______\n_______#_______\n______#_____###\n_____#_____#___\n___#______#____\n________##_____\n____#__________\n____#__________\n____#_________#'
p272
aS'____#______#___\n____#______#___\n____#______#___\n_______________\n_____###_______\n________##_____\n####______#____\n##___________##\n____#______####\n_____##________\n_______###_____\n_______________\n___#______#____\n___#______#____\n___#______#____'
p273
aS'_______#_______\n_______#_______\n_______#_______\n_______#_______\n_#_#_#_#_#_#_##\n_____#________#\n______#_______#\n#_#_#_#_#_#_#_#\n#_______#______\n#________#_____\n##_#_#_#_#_#_#_\n_______#_______\n_______#_______\n_______#_______\n_______#_______'
p274
aS'________#______\n________#______\n________#______\n____##____#____\n____#_____#____\n______#____#___\n###______#_____\n_______#_______\n_____#______###\n___#____#______\n____#_____#____\n____#____##____\n______#________\n______#________\n______#________'
p275
aS'___#____##_____\n___#____#______\n___#___________\n#_____##___#___\n__________#____\n_____#___#_____\n____#___#______\n###_________###\n______#___#____\n_____#___#_____\n____#__________\n___#___##_____#\n___________#___\n______#____#___\n_____##____#___'
p276
aS'____##____#____\n_____#____#____\n_____#____#____\n##_____________\n___#___#___#___\n______________#\n____#___#___###\n_____#___#_____\n###___#___#____\n#______________\n___#___#___#___\n_____________##\n____#____#_____\n____#____#_____\n____#____##____'
p277
aS'______#_____#____#___\n______#_____#____#___\n_________________#___\n___###____##___#_____\n_______#_____________\n________##______#____\n###___#_____#___#____\n___________#______###\n___#______#___#______\n____#___#____###_____\n_____________________\n_____###____#___#____\n______#___#______#___\n###______#___________\n____#___#_____#___###\n____#______##________\n_____________#_______\n_____#___##____###___\n___#_________________\n___#____#_____#______\n___#____#_____#______'
p278
aS'________#______\n________#______\n________#______\n________#______\n###____###_____\n_____#______###\n____#__________\n___#_______#___\n__________#____\n###______#_____\n_____###____###\n______#________\n______#________\n______#________\n______#________'
p279
aS'__________#____\n__________#____\n__________#____\n____#__________\n###___##___#___\n________#_____#\n_____#____#____\n_____#___#_____\n____#____#_____\n#_____#________\n___#___##___###\n__________#____\n____#__________\n____#__________\n____#__________'
p280
aS'____#____#_____\n____#____#_____\n_________#_____\n______##_______\n####______#____\n________#___###\n_________#_____\n_______#_______\n_____#_________\n###___#________\n____#______####\n_______##______\n_____#_________\n_____#____#____\n_____#____#____'
p281
aS'_____#____#____\n_____#____#____\n__________#____\n___#____##_____\n###____________\n______##___####\n_____#____#____\n_______________\n____#____#_____\n####___##______\n____________###\n_____##____#___\n____#__________\n____#____#_____\n____#____#_____'
p282
aS'_____#_____#___\n_____#_____#___\n___________#___\n____#___##_____\n###___##_______\n_____________##\n_____#____#____\n___#_______#___\n____#____#_____\n##_____________\n_______##___###\n_____##___#____\n___#___________\n___#_____#_____\n___#_____#_____'
p283
aS'_____#____#____\n_____#____#____\n_____#____#____\n_______________\n______#_____###\n###____________\n___##___##_____\n_______#_______\n_____##___##___\n____________###\n###_____#______\n_______________\n____#____#_____\n____#____#_____\n____#____#_____'
p284
aS'______#______#_______\n______#______#_______\n_____________#_______\n____#____#______#____\n_____#____###____#___\n###_______________###\n___#____#_____##_____\n_______#_____#_______\n______#_____#________\n##___#_____#____##___\n__________#__________\n___##____#_____#___##\n________#_____#______\n_______#_____#_______\n_____##_____#____#___\n###_______________###\n___#____###____#_____\n____#______#____#____\n_______#_____________\n_______#______#______\n_______#______#______'
p285
aS'_______#_______\n_______#_______\n_______#_______\n___#_______#___\n____#_____#____\n_____#___#_____\n______#________\n###____#____###\n________#______\n_____#___#_____\n____#_____#____\n___#_______#___\n_______#_______\n_______#_______\n_______#_______'
p286
aS'____#__________\n____#__________\n____#__________\n___#____##_____\n_______#____###\n______#____#___\n_____#_________\n____#_____#____\n_________#_____\n___#____#______\n###____#_______\n_____##____#___\n__________#____\n__________#____\n__________#____'
p287
aS'____#____#_____\n____#____#_____\n_________#_____\n_______##______\n###____________\n___##_____#____\n______#_____###\n_____#___#_____\n###_____#______\n____#_____##___\n____________###\n______##_______\n_____#_________\n_____#____#____\n_____#____#____'
p288
aS'_____#___#_____\n_____#___#_____\n_________#_____\n____#______#___\n________#______\n####___#_____##\n______#________\n____#_____#____\n________#______\n##_____#___####\n______#________\n___#______#____\n_____#_________\n_____#___#_____\n_____#___#_____'
p289
aS'_____#____#____\n_____#____#____\n__________#____\n___#____##_____\n###____________\n_______#___####\n____###________\n_______________\n________###____\n####___#_______\n____________###\n_____##____#___\n____#__________\n____#____#_____\n____#____#_____'
p290
aS'____#_____#____\n____#_____#____\n____#__________\n________#______\n###____#____###\n______#________\n_____#____##___\n_____#___#_____\n___##____#_____\n________#______\n###____#____###\n______#________\n__________#____\n____#_____#____\n____#_____#____'
p291
aS'____#________#_______\n____#________#_______\n_____________#_______\n_____##______#___#___\n####______#__________\n____#___#___#___#____\n___________#______###\n_____###______##_____\n_________##__________\n###_____#____#_______\n___#_____________#___\n_______#____#_____###\n__________##_________\n_____##______###_____\n###______#___________\n____#___#___#___#____\n__________#______####\n___#___#______##_____\n_______#_____________\n_______#________#____\n_______#________#____'
p292
aS'_______________\n_______________\n_______________\n___##___#___###\n_____#___#_____\n###___#___##___\n_______________\n_______________\n_______________\n___##___#___###\n_____#___#_____\n###___#___##___\n_______________\n_______________\n_______________'
p293
aS'____#_____#____\n____#_____#____\n_______________\n_______________\n#______#______#\n______#_____###\n_____#_____#___\n____#_____#____\n___#_____#_____\n###_____#______\n#______#______#\n_______________\n_______________\n____#_____#____\n____#_____#____'
p294
aS'___#______#____\n___#______#____\n__________#____\n###____#_______\n_________#_____\n___###_____####\n______#________\n_______________\n________#______\n####_____###___\n_____#_________\n_______#____###\n____#__________\n____#______#___\n____#______#___'
p295
aS'_______#_______\n_______#_______\n_______#_______\n###________#___\n_____##___#____\n___#____#___###\n________##_____\n_______#_______\n_____##________\n###___#____#___\n____#___##_____\n___#________###\n_______#_______\n_______#_______\n_______#_______'
p296
aS'____#_____#____\n____#_____#____\n_______________\n___#____##_____\n###____#____###\n______#________\n_____#_____#___\n____#_____#____\n___#_____#_____\n________#______\n###____#____###\n_____##____#___\n_______________\n____#_____#____\n____#_____#____'
p297
aS'_______#_______\n_______#_______\n_______#_______\n###___#_______#\n____#___#___###\n____##___#_____\n____#______#___\n____#_____#____\n___#______#____\n_____#___##____\n###___#___#____\n#_______#___###\n_______#_______\n_______#_______\n_______#_______'
p298
aS'_______#______#______\n_______#______#______\n______________#______\n____#___#______#_____\n__________##______###\n####_____#___________\n_____###____#___##___\n_____________#_______\n____#_____#____#_____\n___#____##____#______\n##_________________##\n______#____##____#___\n_____#____#_____#____\n_______#_____________\n___##___#____###_____\n___________#_____####\n###______##__________\n_____#______#___#____\n______#______________\n______#______#_______\n______#______#_______'
p299
aS'________#______\n________#______\n_______________\n______#____#___\n____#_____#____\n___#______#____\n###______#_____\n_______#_______\n_____#______###\n____#______#___\n____#_____#____\n___#____#______\n_______________\n______#________\n______#________'
p300
aS'_______###_____\n_________#_____\n_________#_____\n______#___#____\n___##_____#____\n###_____#______\n#____#_____#___\n_______________\n___#_____#____#\n______#_____###\n____#_____##___\n____#___#______\n_____#_________\n_____#_________\n_____###_______'
p301
aS'____#_____#____\n____#_____#____\n____#_____#____\n_____#____#____\n______#________\n________#______\n____#____#_____\n###_________###\n_____#____#____\n______#________\n________#______\n____#____#_____\n____#_____#____\n____#_____#____\n____#_____#____'
p302
aS'____#_____#____\n____#_____#____\n____#_____#____\n_______#______#\n_____#_____#___\n___#_____#_____\n###___#___#____\n##___________##\n____#___#___###\n_____#_____#___\n___#_____#_____\n#______#_______\n____#_____#____\n____#_____#____\n____#_____#____'
p303
aS'____#_____#____\n____#_____#____\n__________#____\n_____#_________\n###___###______\n____________###\n___#_____#_____\n____#_____#____\n_____#_____#___\n###____________\n______###___###\n_________#_____\n____#__________\n____#_____#____\n____#_____#____'
p304
aS'#___#___#______\n____#___#______\n____#__________\n_____##___##___\n____________###\n#______##______\n____#____#_____\n___#_______#___\n_____#____#____\n______##______#\n###____________\n___##___##_____\n__________#____\n______#___#____\n______#___#___#'
p305
aS'________#______\n________#______\n________#______\n________#______\n_____#___#_____\n____#_____#____\n####___________\n______###______\n___________####\n____#_____#____\n_____#___#_____\n______#________\n______#________\n______#________\n______#________'
p306
aS'_______________\n_______________\n_______________\n______###____##\n#___##___#_____\n###______#_____\n#_________#____\n___#_______#___\n____#_________#\n_____#______###\n_____#___##___#\n##____###______\n_______________\n_______________\n_______________'
p307
aS'___#_____#_____\n___#_____#_____\n___#_____#_____\n___________#___\n_______#____###\n###____#_______\n_______#_______\n____#######____\n_______#_______\n_______#____###\n###____#_______\n___#___________\n_____#_____#___\n_____#_____#___\n_____#_____#___'
p308
aS'_____#____#____\n_____#____#____\n_______________\n____#___##_____\n_______#____###\n###____________\n_____##____#___\n____#_____#____\n___#____##_____\n____________###\n###____#_______\n_____##___#____\n_______________\n____#____#_____\n____#____#_____'
p309
aS'____#_____#____\n____#_____#____\n____#__________\n____________###\n_______##_____#\n###___________#\n_____##____#___\n____#_____#____\n___#____##_____\n#___________###\n#_____##_______\n###____________\n__________#____\n____#_____#____\n____#_____#____'
p310
aS'____#_____#____\n____#_____#____\n__________#____\n___#____##_____\n##_____________\n_______#____###\n_____##________\n___##_____##___\n________##_____\n###____#_______\n_____________##\n_____##____#___\n____#__________\n____#_____#____\n____#_____#____'
p311
aS'_______#_______##____\n_______#_______#_____\n_______________#_____\n____#____###_________\n_____#______##_______\n__________________###\n###____#______###____\n___#____#____________\n____#____###_____#___\n_____##_____##_____##\n_____________________\n##_____##_____##_____\n___#_____###____#____\n____________#____#___\n____###______#____###\n###__________________\n_______##______#_____\n_________###____#____\n_____#_______________\n_____#_______#_______\n____##_______#_______'
p312
aS'_______#_______\n_______________\n_______________\n____###_______#\n####_______####\n_________##____\n________#______\n_______________\n______#________\n____##_________\n####_______####\n#_______###____\n_______________\n_______________\n_______#_______'
p313
aS'_______###_____\n_________#_____\n_________#_____\n_____#____#____\n____#______#___\n#####___#______\n____#____#_____\n_______________\n_____#____#____\n______#___#####\n___#______#____\n____#____#_____\n_____#_________\n_____#_________\n_____###_______'
p314
aS'______#____#___\n______#____#___\n___________#___\n#####_____#____\n___#___________\n_____#_#_#_____\n______#_#____##\n_____#_#_#_____\n##____#_#______\n_____#_#_#_____\n___________#___\n____#_____#####\n___#___________\n___#____#______\n___#____#______'
p315
aS'____#____#_____\n____#____#_____\n____#__________\n#_____#___#____\n________#______\n___#___#___#___\n_____#______###\n#_____________#\n###______#_____\n___#___#___#___\n______#________\n____#___#_____#\n__________#____\n_____#____#____\n_____#____#____'
p316
aS'___#_____#_____\n___#_____#_____\n___#___________\n______##_______\n__________##___\n____#____#_____\n___#____#______\n###_________###\n______#____#___\n_____#____#____\n___##__________\n_______##______\n___________#___\n_____#_____#___\n_____#_____#___'
p317
aS'_____#____##___\n_____#____#____\n__________#____\n_______##______\n###___#________\n_____#___#___##\n____#______#___\n___#_______#___\n___#______#____\n##___#___#_____\n________#___###\n______##_______\n____#__________\n____#____#_____\n___##____#_____'
p318
aS'____#____#_____##____\n____#____#_____#_____\n_______________#_____\n_______#____#_____###\n###_______#___#_____#\n________#____________\n_____##____#___#_____\n____________##_______\n___##____##_____##___\n_______##_____#___###\n#___________________#\n###___#_____##_______\n___##_____##____##___\n_______##____________\n_____#___#____##_____\n____________#________\n#_____#___#_______###\n###_____#____#_______\n_____#_______________\n_____#_____#____#____\n____##_____#____#____'
p319
aS'____#__________\n____#__________\n_______________\n_____#____#____\n______#____#___\n____#___#_____#\n___#_____#___##\n_______#_______\n##___#_____#___\n#_____#___#____\n___#____#______\n____#____#_____\n_______________\n__________#____\n__________#____'
p320
aS'_____#____#____\n_____#____#____\n_____#_________\n##_____###_____\n___________#___\n___##_____#____\n_____##_____###\n_______________\n###_____##_____\n____#_____##___\n___#___________\n_____###_____##\n_________#_____\n____#____#_____\n____#____#_____'
p321
aS'_____#_____#___\n_____#_____#___\n_______________\n#_____#___#____\n###______#_____\n___#___#____###\n____#___#______\n_______________\n______#___#____\n###____#___#___\n_____#______###\n____#___#_____#\n_______________\n___#_____#_____\n___#_____#_____'
p322
aS'___#___##______\n_______#_______\n_______#_______\n______#____#___\n##_______#_____\n_____#______###\n____#___#______\n___#_______#___\n______#___#____\n###______#_____\n_____#_______##\n___#____#______\n_______#_______\n_______#_______\n______##___#___'
p323
aS'___#_____#____#______\n_________#____#______\n______________#______\n_____####____________\n____________##___#___\n____#_____##___#_____\n####_____#____#___###\n______#______________\n_____##_____#____#___\n_______#___#____#____\n__________#__________\n____#____#___#_______\n___#____#_____##_____\n______________#______\n###___#____#_____####\n_____#___##_____#____\n___#___##____________\n____________####_____\n______#______________\n______#____#_________\n______#____#_____#___'
p324
aS'___________#___\n___________#___\n___________#___\n___#____#______\n###____#_______\n______#________\n_____#_____#___\n____#_____#____\n___#_____#_____\n________#______\n_______#____###\n______#____#___\n___#___________\n___#___________\n___#___________'
p325
aS'______#________\n______#________\n______#________\n___________#___\n____##____#____\n____#____#_____\n###_____#______\n_______#_______\n______#_____###\n_____#____#____\n____#____##____\n___#___________\n________#______\n________#______\n________#______'
p326
aS'_______#_______\n_______#_______\n_______#_______\n_____________##\n____##_____#___\n___#_____##____\n##_____________\n###___###___###\n_____________##\n____##_____#___\n___#_____##____\n##_____________\n_______#_______\n_______#_______\n_______#_______'
p327
aS'______#___#____\n______#___#____\n______#________\n______________#\n___#___#____###\n###_____#______\n____#____#_____\n_______________\n_____#____#____\n______#_____###\n###____#___#___\n#______________\n________#______\n____#___#______\n____#___#______'
p328
aS'_____#____#____\n_____#____#____\n_____#____#____\n###____________\n#_____###______\n____________###\n___#_____#_____\n____#_____#____\n_____#_____#___\n###____________\n______###_____#\n____________###\n____#____#_____\n____#____#_____\n____#____#_____'
p329
aS'______#________#_______\n______#________#_______\n______#________#_______\n#_____#___#___#____####\n_______#___###____#____\n____#_______#__________\n_____#___#_____###_____\n_________#_________#___\n####____#_____#___#____\n_______#_____#______###\n____________#___#______\n_____#_____#_____#_____\n______#___#____________\n###______#_____#_______\n____#___#_____#____####\n___#_________#_________\n_____###_____#___#_____\n__________#_______#____\n____#____###___#_______\n####____#___#___#_____#\n_______#________#______\n_______#________#______\n_______#________#______'
p330
aS'________#______\n________#______\n________#______\n___#_____#_____\n____#_____#____\n_____#_________\n______#_____###\n___#___#___#___\n###_____#______\n_________#_____\n____#_____#____\n_____#_____#___\n______#________\n______#________\n______#________'
p331
aS'______#________\n______#________\n______#________\n_____#_________\n#____#_____####\n##_____#_______\n____#___##_____\n____#_____#____\n_____##___#____\n_______#_____##\n####_____#____#\n_________#_____\n________#______\n________#______\n________#______'
p332
aS'______#____#___\n______#____#___\n______#________\n###____________\n____##____#____\n___#_____#____#\n____________###\n______###______\n###____________\n#____#_____#___\n____#____##____\n____________###\n________#______\n___#____#______\n___#____#______'
p333
aS'_____#____#____\n_____#____#____\n_____#_________\n________#______\n####___#____###\n___________#___\n_____##___#____\n____#_____#____\n____#___##_____\n___#___________\n###____#___####\n______#________\n_________#_____\n____#____#_____\n____#____#_____'
p334
aS'____#____#_____\n____#____#_____\n____#____#_____\n________#______\n###___#____####\n#_____#________\n___#_____##____\n_______#_______\n____##_____#___\n________#_____#\n####____#___###\n______#________\n_____#____#____\n_____#____#____\n_____#____#____'
p335
aS'___#_____#_____\n___#_____#_____\n___#___________\n_____##___#____\n_______#____###\n##_____________\n___#____##_____\n____#_____#____\n_____##____#___\n_____________##\n###____#_______\n____#___##_____\n___________#___\n_____#_____#___\n_____#_____#___'
p336
aS'___#___#___#___#_____\n_______#_______#_____\n_______#_______#_____\n______#______________\n##____#____####___###\n#_____#__________#___\n____#___##______#____\n___#______#____#_____\n___#______#____#_____\n_______#___#___#____#\n##____#_______#____##\n#____#___#___#_______\n_____#____#______#___\n_____#____#______#___\n____#______##___#____\n___#__________#_____#\n###___####____#____##\n______________#______\n_____#_______#_______\n_____#_______#_______\n_____#___#___#___#___'
p337
aS'__________#____\n__________#____\n__________#____\n_______________\n_____#_____#___\n____#____#_____\n####____#______\n_______#_______\n______#____####\n_____#____#____\n___#_____#_____\n_______________\n____#__________\n____#__________\n____#__________'
p338
aS'________#______\n________#______\n________#______\n_______#______#\n______#_____###\n_____#________#\n____#__________\n___#_______#___\n__________#____\n#________#_____\n###_____#______\n#______#_______\n______#________\n______#________\n______#________'
p339
aS'___#_______#___\n___#_______#___\n___________#___\n______##_______\n_____#_________\n___##____##____\n________#___###\n#_____________#\n###___#________\n____##____##___\n_________#_____\n_______##______\n___#___________\n___#_______#___\n___#_______#___'
p340
aS'____###___#____\n____#_____#____\n__________#____\n###_______#____\n_____###_______\n___#____#____##\n____#____#_____\n_______________\n_____#____#____\n##____#____#___\n_______###_____\n____#_______###\n____#__________\n____#_____#____\n____#___###____'
p341
aS'____#_____#____\n____#_____#____\n_______________\n_____#_____#___\n###___###___###\n_______________\n___#_____#_____\n____#_____#____\n_____#_____#___\n_______________\n###___###___###\n___#_____#_____\n_______________\n____#_____#____\n____#_____#____'
p342
aS'_____#_____#___\n_____#_____#___\n___________#___\n________#______\n____#__________\n###____#_____##\n_____##___#____\n___#_______#___\n____#___##_____\n##_____#____###\n__________#____\n______#________\n___#___________\n___#_____#_____\n___#_____#_____'
p343
aS'______#___#_____#___#\n______#___#_____#____\n_____________________\n____##___#____##_____\n___#____#____#___#___\n____________________#\n_______#___##_______#\n###___#___#___#___###\n##___________________\n____#____#___#___#___\n_____#_________#_____\n___#___#___#____#____\n___________________##\n###___#___#___#___###\n#_______##___#_______\n#____________________\n___#___#____#____#___\n_____##____#___##____\n_____________________\n____#_____#___#______\n#___#_____#___#______'
p344
aS'________#______\n________#______\n________#______\n____#___#______\n####____#______\n___________####\n__________#____\n_____#___#_____\n____#__________\n####___________\n______#____####\n______#___#____\n______#________\n______#________\n______#________'
p345
aS'#___#______#___\n_______________\n_______________\n_____#____#___#\n___#____#______\n#_____#____#___\n____#____#_____\n_______#_______\n_____#____#____\n___#____#_____#\n______#____#___\n#___#____#_____\n_______________\n_______________\n___#______#___#'
p346
aS'_____#_____#___\n_____#_____#___\n___________#___\n____#___##_____\n___#___________\n______##_______\n_____#____#____\n###_________###\n____#____#_____\n_______##______\n___________#___\n_____##___#____\n___#___________\n___#_____#_____\n___#_____#_____'
p347
aS'______#____#___\n______#____#___\n___________#___\n___#_____##____\n###____________\n______###____##\n____##_____#___\n_______________\n___#_____##____\n##____###______\n____________###\n____##_____#___\n___#___________\n___#____#______\n___#____#______'
p348
aS'____#____#_____\n____#____#_____\n____#____#_____\n_______________\n###___##___####\n___#____#______\n____#____#_____\n_______________\n_____#____#____\n______#____#___\n####___##___###\n_______________\n_____#____#____\n_____#____#____\n_____#____#____'
p349
aS'_____#____#____\n_____#____#____\n__________#____\n____#___#____##\n___#___________\n______##___#___\n###______##____\n#_____________#\n____##______###\n___#___##______\n___________#___\n##____#___#____\n____#__________\n____#____#_____\n____#____#_____'
p350
aS'_____#______#________\n_____#______#________\n____________#________\n_______#_____#_______\n####____#_____#___###\n___________#___#_____\n____#_____#_____#____\n_____#___#_______#___\n______#______________\n##____#____###_______\n____#_____#_____#____\n_______###____#____##\n______________#______\n___#_______#___#_____\n____#_____#_____#____\n_____#___#___________\n###___#_____#____####\n_______#_____#_______\n________#____________\n________#______#_____\n________#______#_____'
p351
aS'____#__________\n____#__________\n____#__________\n______#____#___\n_______#____###\n________#______\n___#_____#_____\n____#_____#____\n_____#_____#___\n______#________\n###____#_______\n___#____#______\n__________#____\n__________#____\n__________#____'
p352
aS'____##____#____\n_____#_________\n_____#_________\n______________#\n_______##______\n______##_______\n####_____##____\n_______________\n____##_____####\n_______##______\n______##_______\n#______________\n_________#_____\n_________#_____\n____#____##____'
p353
aS'_____#____#____\n_____#____#____\n_____#____#____\n_______#_______\n####_____#_____\n____#______####\n____#___#______\n_______#_______\n______#___#____\n####______#____\n_____#_____####\n_______#_______\n____#____#_____\n____#____#_____\n____#____#_____'
p354
aS'____#_____#____\n____#_____#____\n____#_____#____\n###____________\n_____####___###\n_____________##\n___#_____#_____\n____#_____#____\n_____#_____#___\n##_____________\n###___####_____\n____________###\n____#_____#____\n____#_____#____\n____#_____#____'
p355
aS'___#______#____\n___#______#____\n___#___________\n____#___##_____\n____________###\n##____##_______\n_____#____##___\n_______________\n___##____#_____\n_______##____##\n###____________\n_____##___#____\n___________#___\n____#______#___\n____#______#___'
p356
aS'_____#_____#___\n_____#_____#___\n_____#_________\n___##____#_____\n_____________##\n______###______\n###____________\n___###___###___\n____________###\n______###______\n##_____________\n_____#____##___\n_________#_____\n___#_____#_____\n___#_____#_____'
p357
aS'#_____##____#_______#\n______#_____#________\n____________#________\n_____#_______#___#___\n____#_____#_____#____\n___##____#_____#_____\n________#_____##___##\n###___##_____#_______\n#_____#____#_____#___\n______#____#____#____\n______#___#___#______\n____#____#____#______\n___#_____#____#_____#\n_______#_____##___###\n##___##_____#________\n_____#_____#____##___\n____#_____#_____#____\n___#___#_______#_____\n________#____________\n________#_____#______\n#_______#____##_____#'
p358
aS'________#______\n________#______\n________#______\n___#_______#___\n_____#____#____\n____#____#_____\n###_____#______\n_______#_______\n______#_____###\n_____#____#____\n____#____#_____\n___#_______#___\n______#________\n______#________\n______#________'
p359
aS'__________#____\n__________#____\n__________#____\n___#____#______\n###____#_______\n______#________\n_____#_____#___\n____#_____#____\n___#_____#_____\n________#______\n_______#____###\n______#____#___\n____#__________\n____#__________\n____#__________'
p360
aS'#______#_____##\n#______#_______\n_______#_______\n___#___#_______\n______#___#____\n_____#______###\n____#___#_____#\n___#___#___#___\n#_____#___#____\n###______#_____\n____#___#______\n_______#___#___\n_______#_______\n_______#______#\n##_____#______#'
p361
aS'____#_____#____\n____#_____#____\n____#_____#____\n______#________\n##___#_______##\n___#___##______\n___#_____#_____\n____#_____#____\n_____#_____#___\n______##___#___\n##_______#___##\n________#______\n____#_____#____\n____#_____#____\n____#_____#____'
p362
aS'___#_____#_____\n___#_____#_____\n___#___________\n______#___#____\n###____##___###\n_______________\n____#______#___\n_____#___#_____\n___#______#____\n_______________\n###___##____###\n____#___#______\n___________#___\n_____#_____#___\n_____#_____#___'
p363
aS'_____#____#____\n_____#____#____\n__________#____\n___#____##_____\n###____________\n_______#____###\n____###____#___\n_______________\n___#____###____\n###____#_______\n____________###\n_____##____#___\n____#__________\n____#____#_____\n____#____#_____'
p364
aS'___##___###_____#____\n___#_____#______#____\n________________#____\n_____##_______#______\n_____#____###________\n_____________#_____##\n###____#_______#_____\n___#___###______##___\n____#____________#___\n_____#_____##____#___\n#_____#___#___#_____#\n___#____##_____#_____\n___#____________#____\n___##______###___#___\n_____#_______#____###\n##_____#_____________\n________###____#_____\n______#_______##_____\n____#________________\n____#______#_____#___\n____#_____###___##___'
p365
aS'______##_______\n______#________\n______#________\n____________###\n____#______#___\n###______#_____\n______#___#____\n_______#_______\n____#___#______\n_____#______###\n___#______#____\n###____________\n________#______\n________#______\n_______##______'
p366
aS'____#____#_____\n____#____#_____\n_________#_____\n_____#_________\n___#___#___#___\n#_________#____\n#_______##_____\n###_________###\n_____##_______#\n____#_________#\n___#___#___#___\n_________#_____\n_____#_________\n_____#____#____\n_____#____#____'
p367
aS'_____#____#____\n_____#____#____\n__________#____\n###_____##_____\n___#___________\n_______#___#___\n____###______##\n_______________\n##______###____\n___#___#_______\n___________#___\n_____##_____###\n____#__________\n____#____#_____\n____#____#_____'
p368
aS'_____#____#____\n_____#____#____\n_______________\n___#_____#____#\n_______#_____##\n____#__________\n###___#____#___\n_____#___#_____\n___#____#___###\n__________#____\n##_____#_______\n#____#_____#___\n_______________\n____#____#_____\n____#____#_____'
p369
aS'____#_____#____\n____#_____#____\n__________#____\n_____#____#____\n______##_____##\n###______#_____\n____#___#______\n___#_______#___\n______#___#____\n_____#______###\n##_____##______\n____#____#_____\n____#__________\n____#_____#____\n____#_____#____'
p370
aS'_____#___##___#______\n_____#___##___#______\n__________#__________\n###____#_____#______#\n___#___##___#_____###\n___#___________##____\n______#____#____#____\n#________##______#___\n____##___________#___\n________#_____#____##\n_______#_____#_______\n##____#_____#________\n___#___________##____\n___#______##________#\n____#____#____#______\n____##___________#___\n###_____#___##___#___\n#______#_____#____###\n__________#__________\n______#___##___#_____\n______#___##___#_____'
p371
aS'_____#____##___\n_____#_________\n_____#_________\n______#________\n##_______#_____\n_______##___###\n____##_____#___\n_______________\n___#_____##____\n###___##_______\n_____#_______##\n________#______\n_________#_____\n_________#_____\n___##____#_____'
p372
aS'____#____#_____\n____#____#_____\n_______________\n_____#____#____\n______#______##\n##______#______\n___#_____#_____\n_______________\n_____#_____#___\n______#______##\n##______#______\n____#____#_____\n_______________\n_____#____#____\n_____#____#____'
p373
aS'____#____#_____\n____#____#_____\n_______________\n___#____#____##\n_______#_______\n##___#_____#___\n______#___#____\n_______________\n____#___#______\n___#_____#___##\n_______#_______\n##____#____#___\n_______________\n_____#____#____\n_____#____#____'
p374
aS'____#____#_____\n____#____#_____\n_________#_____\n###_______#____\n___#___#_______\n____##_____#___\n________#___###\n##___________##\n###___#________\n___#_____##____\n_______#___#___\n____#_______###\n_____#_________\n_____#____#____\n_____#____#____'
p375
aS'____#______#___\n____#______#___\n___________#___\n_______##______\n_____#___#___##\n####___________\n______#___#____\n_______#_______\n____#___#______\n___________####\n##___#___#_____\n______##_______\n___#___________\n___#______#____\n___#______#____'
p376
aS'____#_____#____\n____#_____#____\n____#_____#____\n##_____________\n___#___###____#\n____________###\n_____##____#___\n____#_____#____\n___#____##_____\n###____________\n#____###___#___\n_____________##\n____#_____#____\n____#_____#____\n____#_____#____'
p377
aS'____##____#_____##___\n____#_____#______#___\n__________#__________\n___#____#______#_____\n______#_____###______\n__________________###\n###____#___#_____#___\n_____#____#_____#____\n____#____#___________\n________#____##______\n##______#___#______##\n______##____#________\n___________#____#____\n____#_____#____#_____\n___#_____#___#____###\n###__________________\n______###_____#______\n_____#______#____#___\n__________#__________\n___#______#_____#____\n___##_____#____##____'
p378
aS'____#__________\n____#__________\n____#__________\n_____#____#____\n________##_____\n______##_______\n___#________###\n#___#_____#___#\n###________#___\n_______##______\n_____##________\n____#____#_____\n__________#____\n__________#____\n__________#____'
p379
aS'_____#____#____\n_____#____#____\n__________#____\n____#__________\n####_______#___\n____________###\n_____#####_____\n_____#___#_____\n_____#####_____\n###____________\n___#_______####\n__________#____\n____#__________\n____#____#_____\n____#____#_____'
p380
aS'____#______#___\n____#______#___\n___________#___\n_____#____#____\n#______________\n###___##_____##\n___##____#_____\n_______________\n_____#____##___\n##_____##___###\n______________#\n____#____#_____\n___#___________\n___#______#____\n___#______#____'
p381
aS'____#____#____#\n____#____#_____\n_________#_____\n#_____#________\n___#___#___#___\n____##____#____\n________#_____#\n###_________###\n#_____#________\n____#____##____\n___#___#___#___\n________#_____#\n_____#_________\n_____#____#____\n#____#____#____'
p382
aS'____#____#_____\n____#____#_____\n____#____#_____\n____________###\n______#____#___\n###____##______\n___#___________\n____##___##____\n___________#___\n______##____###\n___#____#______\n###____________\n_____#____#____\n_____#____#____\n_____#____#____'
p383
aS'___#___#______##_____\n_______#_______#_____\n_______#_____________\n______#_____#________\n____________#_____###\n#####_____##___###___\n____#___##___#_______\n_____#________#______\n______#______________\n_______#____#____####\n#___________________#\n####____#____#_______\n______________#______\n______#________#_____\n_______#___##___#____\n___###___##_____#####\n###_____#____________\n________#_____#______\n_____________#_______\n_____#_______#_______\n_____##______#___#___'
p384
aS'____#____#_____\n_________#_____\n_________#_____\n_________#_____\n_________#_____\n###____#_______\n#___###________\n___#_______#___\n________###___#\n_______#____###\n_____#_________\n_____#_________\n_____#_________\n_____#_________\n_____#____#____'
p385
aS'________#______\n________#______\n________#______\n___#____#___###\n___#____#______\n___###___#_____\n####___#_______\n_______#_______\n_______#___####\n_____#___###___\n______#____#___\n###___#____#___\n______#________\n______#________\n______#________'
p386
aS'____##___#_____\n_____#___#_____\n_____#_________\n___#______#____\n___________#___\n###___###____##\n____#____#_____\n_______________\n_____#____#____\n##____###___###\n___#___________\n____#______#___\n_________#_____\n_____#___#_____\n_____#___##____'
p387
aS'____#_____#____\n____#_____#____\n____#_____#____\n_____#___#_____\n_______#_______\n###___#______##\n______#________\n___###___###___\n________#______\n##______#___###\n_______#_______\n_____#___#_____\n____#_____#____\n____#_____#____\n____#_____#____'
p388
aS'_______#_______\n_______#_______\n_______________\n____##____#____\n####_______#___\n______###___###\n_______________\n____##___##____\n_______________\n###___###______\n___#_______####\n____#____##____\n_______________\n_______#_______\n_______#_______'
p389
aS'________#____##______\n________#____#_______\n_____________#_______\n___#___#___#______###\n######________#______\n___#_____#____#______\n______#_____#____#___\n______#____#____#____\n____#_____#_____#____\n___#____#_____#____##\n_____________________\n##____#_____#____#___\n____#_____#_____#____\n____#____#____#______\n___#____#_____#______\n______#____#_____#___\n______#________######\n###______#___#___#___\n_______#_____________\n_______#____#________\n______##____#________'
p390
aS'_________#_____\n_________#_____\n_________#_____\n_________#_____\n_____#_________\n#####_____#____\n#______#_______\n______###______\n_______#______#\n____#_____#####\n_________#_____\n_____#_________\n_____#_________\n_____#_________\n_____#_________'
p391
aS'_______#_______\n_______________\n_______________\n#________#_____\n___############\n______#____#___\n______#________\n_______________\n________#______\n___#____#______\n############___\n_____#________#\n_______________\n_______________\n_______#_______'
p392
aS'____#_____#____\n____#_____#____\n__________#____\n##___##___#____\n#______________\n___#___###_____\n____#___#___###\n_______________\n###___#___#____\n_____###___#___\n______________#\n____#___##___##\n____#__________\n____#_____#____\n____#_____#____'
p393
aS'____#_____#____\n____#_____#____\n__________#____\n______##_______\n_____#___#___##\n_____#_____#___\n###_____#______\n____#_____#____\n______#_____###\n___#_____#_____\n##___#___#_____\n_______##______\n____#__________\n____#_____#____\n____#_____#____'
p394
aS'____#____#_____\n____#____#_____\n____#____#_____\n______________#\n###____##___###\n______#___#____\n_____#_____#___\n_______________\n___#_____#_____\n____#___#______\n###___##____###\n#______________\n_____#____#____\n_____#____#____\n_____#____#____'
p395
aS'_____#_______#_______\n_____#_______#_______\n_____#_______________\n_______####___##_____\n________________#____\n###___#____###___####\n#___#_______#________\n_________#___________\n_____#____#____##____\n_______##_____#______\n####_____________####\n______#_____##_______\n____##____#____#_____\n___________#_________\n________#_______#___#\n####___###____#___###\n____#________________\n_____##___####_______\n_______________#_____\n_______#_______#_____\n_______#_______#_____'
p396
aS'_______#_______\n_______________\n_______________\n_____#_____#___\n____#_____#____\n___#_____#_____\n________#______\n#______#______#\n______#________\n_____#_____#___\n____#_____#____\n___#_____#_____\n_______________\n_______________\n_______#_______'
p397
aS'_________#_____\n_________#_____\n_________#_____\n___#____#______\n___##______#___\n_____#____##___\n###____#_______\n______###______\n_______#____###\n___##____#_____\n___#______##___\n______#____#___\n_____#_________\n_____#_________\n_____#_________'
p398
aS'___#___#_____##\n_______#_______\n_______#_______\n_____#____##___\n_____#_________\n___##____#_____\n____#___#_____#\n###_________###\n#_____#___#____\n_____#____##___\n_________#_____\n___##____#_____\n_______#_______\n_______#_______\n##_____#___#___'
p399
aS'___#_____#_____\n___#_____#_____\n___#___________\n______##___#___\n_____#____#____\n_________#_____\n___##___#___###\n##___________##\n###___#___##___\n_____#_________\n____#____#_____\n___#___##______\n___________#___\n_____#_____#___\n_____#_____#___'
p400
aS'____#____#_____\n____#____#_____\n_________#_____\n___#___##______\n___#___________\n_____##____#___\n____#_______###\n##___________##\n###_______#____\n___#____##_____\n___________#___\n______##___#___\n_____#_________\n_____#____#____\n_____#____#____'
p401
aS'____#_____##___#_____\n___________#___#_____\n_______________#_____\n___#____##____#______\n______##_____________\n#____#______##_______\n###_______###___#####\n___#_____#___________\n____#___##_____#_____\n_____________##______\n##____#___#___#____##\n______##_____________\n_____#_____##___#____\n___________#_____#___\n#####___###_______###\n_______##______#____#\n_____________##______\n______#____##____#___\n_____#_______________\n_____#___#___________\n_____#___##_____#____'
p402
aS'_____##________\n_____#_________\n_____#_________\n_____#____##___\n#___#_______###\n____#____#_____\n___#____#______\n___#_______#___\n______#____#___\n_____#____#____\n###_______#___#\n___##____#_____\n_________#_____\n_________#_____\n________##_____'
p403
aS'___###____#____\n____#_____#____\n____#__________\n_______#____###\n______#____#___\n_______________\n####____###____\n#_____________#\n____###____####\n_______________\n___#____#______\n###____#_______\n__________#____\n____#_____#____\n____#____###___'
p404
aS'_____#____#____\n_____#____#____\n_______________\n###______#_____\n_______##______\n___#______##___\n_____##_____###\n#_____________#\n###_____##_____\n___##______#___\n______##_______\n_____#______###\n_______________\n____#____#_____\n____#____#_____'
p405
aS'_____##____#___\n_____#_____#___\n___________#___\n____#_____#____\n________#____##\n###___##_______\n___#_____#_____\n___#_______#___\n_____#_____#___\n_______##___###\n##____#________\n____#_____#____\n___#___________\n___#_____#_____\n___#____##_____'
p406
aS'____#____#_____\n____#____#_____\n_________#_____\n_____##___#____\n####___________\n____#_______###\n____#____#_____\n______###______\n_____#____#____\n###_______#____\n___________####\n____#___##_____\n_____#_________\n_____#____#____\n_____#____#____'
p407
aS'_______##_____##_______\n_______#_______#_______\n_______#_______#_______\n____#____#___#____#____\n_____##_________##_____\n###_____#_____#_____###\n________#_____#________\n____#____#####____#____\n_______#_______#_______\n______#_________#______\n###_____#_____#_____###\n_____#____###____#_____\n___###___________###___\n_____#___#___#___#_____\n_______#_______#_______\n###___#____#____#___###\n___#______###______#___\n____#____#___#____#____\n_______##_____##_______\n#_____#_________#_____#\n___#_______#_______#___\n___#_______#_______#___\n___#___#___#___#___#___'
p408
aS'___________#___\n___________#___\n___________#___\n___#____#______\n_______#_______\n###___#________\n_____#_____#___\n____#_____#____\n___#_____#_____\n________#___###\n_______#_______\n______#____#___\n___#___________\n___#___________\n___#___________'
p409
aS'##___________##\n#_____________#\n_______________\n_______###_____\n______#________\n_____#_____#___\n____#______#___\n###_________###\n___#______#____\n___#_____#_____\n________#______\n_____###_______\n_______________\n#_____________#\n##___________##'
p410
aS'____#____#_____\n____#____#_____\n____#____#_____\n____________###\n___#___##______\n______#____#___\n##_____________\n____##___##____\n_____________##\n___#____#______\n______##___#___\n###____________\n_____#____#____\n_____#____#____\n_____#____#____'
p411
aS'____#____#_____\n____#____#_____\n____#__________\n_____##______##\n__________##___\n___#___#_______\n###_____##_____\n_______________\n_____##_____###\n_______#___#___\n___##__________\n##______##_____\n__________#____\n_____#____#____\n_____#____#____'
p412
aS'______#___#____\n______#___#____\n______#___#____\n_______________\n###______#_____\n____##_________\n_______#___####\n______###______\n####___#_______\n_________##____\n_____#______###\n_______________\n____#___#______\n____#___#______\n____#___#______'
p413
aS'____#____#_____\n____#____#_____\n____#__________\n___#____#_____#\n##_____#____###\n___________#___\n_____##________\n____#_____#____\n________##_____\n___#___________\n###____#_____##\n#_____#____#___\n__________#____\n_____#____#____\n_____#____#____'
p414
aS'_____##____#_____#___\n_____#_____#_____#___\n_________________#___\n_________#___#_______\n####____#____________\n______#________##____\n____##_____##_____###\n__________#__________\n_______#_____##______\n###_____##_____#_____\n___##___________##___\n_____#_____##_____###\n______##_____#_______\n__________#__________\n###_____##_____##____\n____##________#______\n____________#____####\n_______#___#_________\n___#_________________\n___#_____#_____#_____\n___#_____#____##_____'
p415
aS'________#______\n________#______\n________#______\n___#___#_______\n##________#____\n____#_______###\n_________#_____\n______###______\n_____#_________\n###_______#____\n____#________##\n_______#___#___\n______#________\n______#________\n______#________'
p416
aS'_______#_______\n_______________\n_______________\n_____#_____#___\n____#_____#____\n___#_____#_____\n###_____#______\n#______#______#\n______#_____###\n_____#_____#___\n____#_____#____\n___#_____#_____\n_______________\n_______________\n_______#_______'
p417
aS'______#___#____\n______#___#____\n__________#____\n###____#_______\n_____#______###\n___##____#_____\n____#___#______\n____#_____#____\n______#___#____\n_____#____##___\n###______#_____\n_______#____###\n____#__________\n____#___#______\n____#___#______'
p418
aS'______#___#____\n______#___#____\n______#___#____\n_______________\n###____##___###\n___#___________\n_____##___#____\n____#_____#____\n____#___##_____\n___________#___\n###___##____###\n_______________\n____#___#______\n____#___#______\n____#___#______'
p419
aS'___#____#______\n___#____#______\n________#______\n_____#____##___\n###____________\n______##____###\n___##____#_____\n_______________\n_____#____##___\n###____##______\n____________###\n___##____#_____\n______#________\n______#____#___\n______#____#___'
p420
aS'_____#____#____\n_____#____#____\n__________#____\n___#_____#_____\n###____#____###\n##_____________\n____#___#______\n_____#___#_____\n______#___#____\n_____________##\n###____#____###\n_____#_____#___\n____#__________\n____#____#_____\n____#____#_____'
p421
aS'_____#______#________\n_____#______#________\n_____#______#________\n____________#________\n###___#____#____#####\n___#_____#____#______\n___#______#____#_____\n___#____#____#_______\n_______#_____________\n_____##____##____####\n____#___________#____\n####____##____##_____\n_____________#_______\n_______#____#____#___\n_____#____#______#___\n______#____#_____#___\n#####____#____#___###\n________#____________\n________#______#_____\n________#______#_____\n________#______#_____'
p422
aS'_______#_______\n_______#_______\n_______#_______\n_____#_____#___\n____#_____#____\n___#_____#_____\n_______#_______\n###___###___###\n_______#_______\n_____#_____#___\n____#_____#____\n___#_____#_____\n_______#_______\n_______#_______\n_______#_______'
p423
aS'______#________\n______#________\n______#________\n____#__________\n___#______#____\n___#_____#_____\n________#______\n###____#____###\n______#________\n_____#_____#___\n____#______#___\n__________#____\n________#______\n________#______\n________#______'
p424
aS'______##_______\n______#________\n______#________\n_____________##\n____#___###____\n___#___#___#___\n______#________\n###_________###\n________#______\n___#___#___#___\n____###___#____\n##_____________\n________#______\n________#______\n_______##______'
p425
aS'____#_____##___\n____#_____#____\n__________#____\n###______#_____\n________#______\n______##_____##\n___##__________\n_____#___#_____\n__________##___\n##_____##______\n______#________\n_____#______###\n____#__________\n____#_____#____\n___##_____#____'
p426
aS'______#___#____\n______#___#____\n______#________\n______#_____###\n###____##______\n____#_____#____\n___#_____#_____\n___#_______#___\n_____#_____#___\n____#_____#____\n______##____###\n###_____#______\n________#______\n____#___#______\n____#___#______'
p427
aS'___#_____#_____\n___#_____#_____\n___#___________\n_____###_____##\n__________#____\n###______#_____\n____#___#______\n___#_______#___\n______#___#____\n_____#______###\n____#__________\n##_____###_____\n___________#___\n_____#_____#___\n_____#_____#___'
p428
aS'_____#____#_____#____\n_____#____#_____#____\n__________#__________\n____#____#____##_____\n##_____##___#________\n___#_____________####\n______#______#_______\n____#_____##____#____\n_________#___________\n###_____#_____##_____\n_____#_________#_____\n_____##_____#_____###\n___________#_________\n____#____##_____#____\n_______#______#______\n####_____________#___\n________#___##_____##\n_____##____#____#____\n__________#__________\n____#_____#____#_____\n____#_____#____#_____'
p429
aS'_________#_____\n_________#_____\n_________#_____\n___#_____#_____\n____#______#___\n_____#____#____\n______#________\n###____#____###\n________#______\n____#____#_____\n___#______#____\n_____#_____#___\n_____#_________\n_____#_________\n_____#_________'
p430
aS'____#__________\n____#__________\n____#__________\n______#____#___\n_____#____#____\n_________#_____\n___#____#______\n###_________###\n______#____#___\n_____#_________\n____#____#_____\n___#____#______\n__________#____\n__________#____\n__________#____'
p431
aS'______##_______\n______#________\n______#________\n###______#_____\n________###____\n___##______#___\n_____##_____###\n#______#______#\n###_____##_____\n___#______##___\n____###________\n_____#______###\n________#______\n________#______\n_______##______'
p432
aS'___#____#______\n___#____#______\n___#___________\n____###_____###\n_________##____\n_______#___#___\n###_____#______\n#_____________#\n______#_____###\n___#___#_______\n____##_________\n###_____###____\n___________#___\n______#____#___\n______#____#___'
p433
aS'_____#____#____\n_____#____#____\n_______________\n____#___##_____\n##___________##\n___#___#____###\n_____##___#____\n_______________\n____#___##_____\n###____#___#___\n##___________##\n_____##___#____\n_______________\n____#____#_____\n____#____#_____'
p434
aS'____#____#_____\n____#____#_____\n____#____#_____\n#______________\n###___#_____###\n_______##______\n_________#_____\n___##_____##___\n_____#_________\n______##_______\n###_____#___###\n______________#\n_____#____#____\n_____#____#____\n_____#____#____'
p435
aS'____#_____#_____#____\n____#_____#_____#____\n____#___________#____\n____#______#_________\n____________##_______\n###___####____#______\n_____#____#____#___##\n____#______#____#____\n___#_______#_____#___\n___#___#___#_____#___\n___#______#______#___\n___#_____#___#___#___\n___#_____#_______#___\n____#____#______#____\n##___#____#____#_____\n______#____####___###\n_______##____________\n_________#______#____\n____#___________#____\n____#_____#_____#____\n____#_____#_____#____'
p436
aS'________#______\n________#______\n________#______\n___#___#_______\n______#_____###\n_____#_______##\n____#__________\n___#_______#___\n__________#____\n##_______#_____\n###_____#______\n_______#___#___\n______#________\n______#________\n______#________'
p437
aS'____##____#____\n____#_____#____\n____#__________\n_______##______\n_____#___#_____\n_________#_____\n###___#___##___\n##___________##\n___##___#___###\n_____#_________\n_____#___#_____\n______##_______\n__________#____\n____#_____#____\n____#____##____'
p438
aS'____#____#_____\n____#____#_____\n____#____#_____\n_____________##\n_______##______\n###___#________\n___#_____##____\n___#_______#___\n____##_____#___\n________#___###\n______##_______\n##_____________\n_____#____#____\n_____#____#____\n_____#____#____'
p439
aS'___#____#______\n___#____#______\n________#______\n____#____#___##\n_____#_________\n###____#_______\n#_____#___#____\n___#_______#___\n____#___#_____#\n_______#____###\n_________#_____\n##___#____#____\n______#________\n______#____#___\n______#____#___'
p440
aS'______#___#____\n______#___#____\n______#___#____\n___##___#______\n###____#_______\n_____________##\n_____#____##___\n_____#___#_____\n___##____#_____\n##_____________\n_______#____###\n______#___##___\n____#___#______\n____#___#______\n____#___#______'
p441
aS'___#____##____#______\n___#____#_____#______\n___#__________#______\n____#______#___#_____\n____#_____#_____#____\n#______###________###\n______#_______#______\n______#______#_______\n____###_____#___#____\n###___#____#_____#___\n_____________________\n___#_____#____#___###\n____#___#_____###____\n_______#______#______\n______#_______#______\n###________###______#\n____#_____#_____#____\n_____#___#______#____\n______#__________#___\n______#_____#____#___\n______#____##____#___'
p442
aS'_______#_______\n_______#_______\n_______#_______\n____#_____#____\n_____#___#_____\n___#_______#___\n_______#_______\n###___###___###\n_______#_______\n___#_______#___\n_____#___#_____\n____#_____#____\n_______#_______\n_______#_______\n_______#_______'
p443
aS'_____#_________\n_____#_________\n_____#_________\n_____#____##___\n____#____#_____\n___#________###\n_______#_______\n______###______\n_______#_______\n###________#___\n_____#____#____\n___##____#_____\n_________#_____\n_________#_____\n_________#_____'
p444
aS'_____#____#____\n_____#____#____\n__________#____\n###_____#______\n____#__________\n_______#___#___\n_____##_____###\n#_____________#\n###_____##_____\n___#___#_______\n__________#____\n______#_____###\n____#__________\n____#____#_____\n____#____#_____'
p445
aS'____#_____#____\n____#_____#____\n__________#____\n_____#___#_____\n####___________\n______###___###\n____#______#___\n_______________\n___#______#____\n###___###______\n___________####\n_____#___#_____\n____#__________\n____#_____#____\n____#_____#____'
p446
aS'_____#___#_____\n_____#___#_____\n_____#_________\n____#_______###\n#______##______\n##____#___#____\n_____#____#____\n___#_______#___\n____#____#_____\n____#___#____##\n______##______#\n###_______#____\n_________#_____\n_____#___#_____\n_____#___#_____'
p447
aS'____#_____#____\n____#_____#____\n__________#____\n_____#_____#___\n___#___##______\n_______________\n###___#___#____\n_____#___#_____\n____#___#___###\n_______________\n______##___#___\n___#_____#_____\n____#__________\n____#_____#____\n____#_____#____'
p448
aS'_______##___#___##___\n_______#____#____#___\n____________#________\n___##______#_________\n###___#______________\n_______##____#___#___\n_____#______#_____###\n____________________#\n___##____###___##____\n###_____#____________\n______##_____##______\n____________#_____###\n____##___###____##___\n#____________________\n###_____#______#_____\n___#___#____##_______\n______________#___###\n_________#______##___\n________#____________\n___#____#____#_______\n___##___#___##_______'
p449
aS'______#________\n______#________\n______#________\n__________#____\n###______#_____\n___#___##___###\n______________#\n____#_____#____\n#______________\n###___##___#___\n_____#______###\n____#__________\n________#______\n________#______\n________#______'
p450
aS'___#___#___#___\n_______#_______\n_______#_______\n____#_____#____\n___##____##____\n#___#_____#___#\n____#_____#____\n____#_____#____\n____#_____#____\n#___#_____#___#\n____#_____#____\n___###___###___\n_______#_______\n_______#_______\n_______#_______'
p451
aS'_____#____#____\n_____#____#____\n_____#_________\n##_____________\n___#___###_____\n___________#___\n____###_____###\n_______________\n###_____###____\n___#___________\n_____###___#___\n_____________##\n_________#_____\n____#____#_____\n____#____#_____'
p452
aS'____#____#_____\n____#____#_____\n_________#_____\n_____________##\n______##___#___\n___#___________\n____#___##_____\n###_________###\n_____##___#____\n___________#___\n___#___##______\n##_____________\n_____#_________\n_____#____#____\n_____#____#____'
p453
aS'____##____#____\n____#_____#____\n____#__________\n_______##___###\n###___#________\n#____#_____#___\n_____#____#____\n_____#___#_____\n____#____#_____\n___#_____#____#\n________#___###\n###___##_______\n__________#____\n____#_____#____\n____#____##____'
p454
aS'___##_____##____#____\n____#______#____#____\n____#___________#____\n________#_____#______\n_____#____#___#______\n##_____#__________###\n#___#____#___#______#\n___#____##______#____\n_____#_____#___#_____\n______#_____#____#___\n______#_______#______\n___#____#_____#______\n_____#___#_____#_____\n____#______##____#___\n#______#___#____#___#\n###__________#_____##\n______#___#____#_____\n______#_____#________\n____#___________#____\n____#____#______#____\n____#____##_____##___'
p455
aS'_____#___#_____\n_______________\n_______________\n_______#_____##\n##___#___#_____\n____#_____#____\n___#____#______\n_______#_______\n______#____#___\n____#_____#____\n_____#___#___##\n##_____#_______\n_______________\n_______________\n_____#___#_____'
p456
aS'________#______\n________#______\n________#______\n______#____#___\n_____#____#____\n____#____#_____\n###____________\n_______#_______\n____________###\n_____#____#____\n____#____#_____\n___#____#______\n______#________\n______#________\n______#________'
p457
aS'____#_____#____\n____#_____#____\n____#_____#____\n______________#\n###___##____###\n##_____________\n___#____##_____\n____#_____#____\n_____##____#___\n_____________##\n###____##___###\n#______________\n____#_____#____\n____#_____#____\n____#_____#____'
p458
aS'____#____#_____\n____#____#_____\n_________#_____\n___#____#____##\n#______________\n###___##___#___\n____##_____#___\n_______________\n___#_____##____\n___#___##___###\n______________#\n##____#____#___\n_____#_________\n_____#____#____\n_____#____#____'
p459
aS'____#_____#____\n____#_____#____\n__________#____\n______#________\n###_____##_____\n_______#____###\n____##_____#___\n_______________\n___#_____##____\n###____#_______\n_____##_____###\n________#______\n____#__________\n____#_____#____\n____#_____#____'
p460
aS'____#____#_____\n____#____#_____\n_________#_____\n###_____#______\n__________#____\n_____###_____##\n____#______#___\n___#_______#___\n___#______#____\n##_____###_____\n____#__________\n______#_____###\n_____#_________\n_____#____#____\n_____#____#____'
p461
aS'________#______#_____\n________#______#_____\n_______________#_____\n____#____#___#_______\n###____#______#____##\n_____#____#__________\n______#____##____#___\n_____________#___#___\n___#___#_______##____\n###____###____#______\n_____________________\n______#____###____###\n____##_______#___#___\n___#___#_____________\n___#____##____#______\n__________#____#_____\n##____#______#____###\n_______#___#____#____\n_____#_______________\n_____#______#________\n_____#______#________'
p462
aS'___________#___\n___________#___\n___________#___\n___#___##______\n____#____#_____\n_____#____#____\n______#________\n###_________###\n________#______\n____#____#_____\n_____#____#____\n______##___#___\n___#___________\n___#___________\n___#___________'
p463
aS'_______________\n_______________\n_______________\n___#_______#___\n____#######____\n#_____________#\n##___________##\n###_________###\n##___________##\n#_____________#\n____#######____\n___#_______#___\n_______________\n_______________\n_______________'
p464
aS'#________#_____\n_________#_____\n_________#_____\n____####___#___\n###___#___#____\n________#______\n___#_____#_____\n___#_______#___\n_____#_____#___\n______#________\n____#___#___###\n___#___####____\n_____#_________\n_____#_________\n_____#________#'
p465
aS'_____#____#____\n_____#_________\n_______________\n___##___##_____\n_____________##\n###___##___#___\n_____#____#____\n_______________\n____#____#_____\n___#___##___###\n##_____________\n_____##___##___\n_______________\n_________#_____\n____#____#_____'
p466
aS'____#____#_____\n____#____#_____\n____#____#_____\n____________###\n_____###___#___\n####___________\n____#___##_____\n_______________\n_____##___#____\n___________####\n___#___###_____\n###____________\n_____#____#____\n_____#____#____\n_____#____#____'
p467
aS'____#_____#____\n____#_____#____\n__________#____\n#____#___#_____\n______##_______\n___#___________\n___#____#___###\n____##___##____\n###___#____#___\n___________#___\n_______##______\n_____#___#____#\n____#__________\n____#_____#____\n____#_____#____'
p468
aS'____#___##_____#_____\n____#___#______#_____\n________#____________\n___________###___#___\n_____##____#_________\n____#____#____#_____#\n___#_____#____#___###\n##______#______#_____\n_____#_____#_____#___\n______#_____#____#___\n______#_______#______\n___#____#_____#______\n___#_____#_____#_____\n_____#______#______##\n###___#____#_____#___\n#_____#____#____#____\n_________#____##_____\n___#___###___________\n____________#________\n_____#______#___#____\n_____#_____##___#____'
p469
aS'____##____#____\n____#_____#____\n____#_____#____\n________#______\n_______________\n##____##____###\n_____#_____#___\n____#_____#____\n___#_____#_____\n###____##____##\n_______________\n______#________\n____#_____#____\n____#_____#____\n____#____##____'
p470
aS'_________#_____\n_________#_____\n_________#_____\n___#_______#___\n_____#____#____\n____#__________\n________##_____\n###____#____###\n_____##________\n__________#____\n____#____#_____\n___#_______#___\n_____#_________\n_____#_________\n_____#_________'
p471
aS'____##___##____\n_____#____#____\n_____#_________\n________#______\n###____#____###\n______#____#___\n_____#_____#___\n____#_____#____\n___#_____#_____\n___#____#______\n###____#____###\n______#________\n_________#_____\n____#____#_____\n____##___##____'
p472
aS'___#____#______\n___#____#______\n________#______\n_____#_____####\n____##_________\n______##_______\n####_____##____\n#_____________#\n____##_____####\n_______##______\n_________##____\n####_____#_____\n______#________\n______#____#___\n______#____#___'
p473
aS'_____#____#____\n_____#____#____\n_______________\n___#____#______\n###___##____###\n_____________##\n_____#____#____\n___##_____##___\n____#____#_____\n##_____________\n###____##___###\n______#____#___\n_______________\n____#____#_____\n____#____#_____'
p474
a.