(lp1
S'___###___###___\n____#_____#____\n____#_____#____\n_______#_______\n###___###___###\n_______#_______\n____#_____#____\n___###___###___\n____#_____#____\n_______#_______\n###___###___###\n_______#_______\n____#_____#____\n____#_____#____\n___###___###___'
p2
aS'_____#_____#___\n_____#_____#___\n_______________\n###_____###____\n_______________\n___#####___#___\n_____#______###\n#_____________#\n###______#_____\n___#___#####___\n_______________\n____###_____###\n_______________\n___#_____#_____\n___#_____#_____'
p3
aS'###_________###\n##___________##\n#_____________#\n______###______\n_____#___#_____\n____#_____#____\n___#___________\n___#_______#___\n___________#___\n____#_____#____\n_____#___#_____\n______###______\n#_____________#\n##___________##\n###_________###'
p4
aS'_____#____#____\n_____#____#____\n_____#_________\n____#___##_____\n______________#\n##____##___####\n__________#____\n_____#___#_____\n____#__________\n####___##____##\n#______________\n_____##___#____\n_________#_____\n____#____#_____\n____#____#_____'
p5
aS'____#____#_____\n____#____#_____\n____#____#_____\n____________###\n___#___#___#___\n##_____________\n###___#___#____\n_____#___#_____\n____#___#___###\n_____________##\n___#___#___#___\n###____________\n_____#____#____\n_____#____#____\n_____#____#____'
p6
aS'_____#____##___\n_____#____#____\n_______________\n___##_______###\n______###______\n_____#___#_____\n###_______#____\n#_____________#\n____#_______###\n_____#___#_____\n______###______\n###_______##___\n_______________\n____#____#_____\n___##____#_____'
p7
aS'____#_____#____\n____#_____#____\n__________#____\n______#________\n####___###_____\n_____#______###\n_____#____#____\n_______________\n____#____#_____\n###______#_____\n_____###___####\n________#______\n____#__________\n____#_____#____\n____#_____#____'
p8
aS'_____#___#_____\n_____#___#_____\n_________#_____\n___#____#______\n###____#____###\n______________#\n______#___##___\n_____#___#_____\n___##___#______\n#______________\n###____#____###\n______#____#___\n_____#_________\n_____#___#_____\n_____#___#_____'
p9
aS'____#_____#____\n____#_____#____\n____#__________\n________##_____\n##_____#___#___\n______#____#___\n_____#______###\n____#_____#____\n###______#_____\n___#____#______\n___#___#_____##\n_____##________\n__________#____\n____#_____#____\n____#_____#____'
p10
aS'______#____#___\n______#____#___\n___________#___\n##______###____\n____##_________\n___#___#_______\n______#_____###\n##___________##\n###_____#______\n_______#___#___\n_________##____\n____###______##\n___#___________\n___#____#______\n___#____#______'
p11
aS'_____#_____#___\n_____#_____#___\n___________#___\n###___##_______\n#______________\n___###___##____\n________#___###\n_______#_______\n###___#________\n____##___###___\n______________#\n_______##___###\n___#___________\n___#_____#_____\n___#_____#_____'
p12
aS'____#_____#____\n____#_____#____\n____#_____#____\n____#___#______\n_______#____###\n##____#________\n_____#_____#___\n____#_____#____\n___#_____#_____\n________#____##\n###____#_______\n______#___#____\n____#_____#____\n____#_____#____\n____#_____#____'
p13
aS'____#____#_____\n____#____#_____\n_________#_____\n_____________##\n___#___##______\n###___#____#___\n##_____________\n____##___##____\n_____________##\n___#____#___###\n______##___#___\n##_____________\n_____#_________\n_____#____#____\n_____#____#____'
p14
aS'____#____#_____\n____#____#_____\n____#____#_____\n_____________##\n___#___##______\n_____#_____#___\n###___#___#____\n_______________\n____#___#___###\n___#_____#_____\n______##___#___\n##_____________\n_____#____#____\n_____#____#____\n_____#____#____'
p15
aS'_____#___##____\n_____#___#_____\n_________#_____\n____#_______###\n______#________\n___#___#___#___\n###_____##_____\n#_____________#\n_____##_____###\n___#___#___#___\n________#______\n###_______#____\n_____#_________\n_____#___#_____\n____##___#_____'
p16
aS'_____#____##___\n_____#_____#___\n_____#_____#___\n#______#_______\n###______#____#\n____#___#______\n_____#_____#___\n___#___#___#___\n___#_____#_____\n______#___#____\n#____#______###\n_______#______#\n___#_____#_____\n___#_____#_____\n___##____#_____'
p17
aS'_____#_____#___\n_____#_____#___\n___________#___\n___#____##_____\n___#___________\n##____#_____###\n_____#____#____\n_______#_______\n____#____#_____\n###_____#____##\n___________#___\n_____##____#___\n___#___________\n___#_____#_____\n___#_____#_____'
p18
aS'____#____#_____\n____#____#_____\n_________#_____\n_____#___#_____\n###___##____###\n#______________\n___#____#______\n____##___##____\n______#____#___\n______________#\n###____##___###\n_____#___#_____\n_____#_________\n_____#____#____\n_____#____#____'
p19
aS'____#_____#____\n____#_____#____\n____#_____#____\n________#______\n####________###\n_____##____#___\n______#___#____\n_______#_______\n____#___#______\n___#____##_____\n###________####\n______#________\n____#_____#____\n____#_____#____\n____#_____#____'
p20
aS'____#_____#____\n____#_____#____\n____#_____#____\n##_____________\n___#___###_____\n_____________##\n_____##____####\n____#_____#____\n####____##_____\n##_____________\n_____###___#___\n_____________##\n____#_____#____\n____#_____#____\n____#_____#____'
p21
aS'___#_____#_____\n___#_____#_____\n___#_____#_____\n_____#______###\n_______##______\n###___#____#___\n____#____#_____\n____#_____#____\n_____#____#____\n___#____#___###\n______##_______\n###______#_____\n_____#_____#___\n_____#_____#___\n_____#_____#___'
p22
aS'_____#____#____\n_____#____#____\n_____#____#____\n________#______\n###____#_______\n______#_____###\n___#_____#_____\n____#_____#____\n_____#_____#___\n###_____#______\n_______#____###\n______#________\n____#____#_____\n____#____#_____\n____#____#_____'
p23
aS'_____#____#____\n_____#____#____\n__________#____\n___#_____#_____\n_______##____##\n###___________#\n_____##____#___\n____#_____#____\n___#____##_____\n#___________###\n##____##_______\n_____#_____#___\n____#__________\n____#____#_____\n____#____#_____'
p24
aS'______##_______\n______#________\n______#________\n____#__________\n#____#______###\n_________#_____\n___#______#____\n___#_______#___\n____#______#___\n_____#_________\n###______#____#\n__________#____\n________#______\n________#______\n_______##______'
p25
aS'____#_____#____\n____#_____#____\n____#_____#____\n______#________\n___#___##___###\n##_________#___\n_____#_____#___\n____#_____#____\n___#_____#_____\n___#_________##\n###___##___#___\n________#______\n____#_____#____\n____#_____#____\n____#_____#____'
p26
aS'_____#____#____\n_____#____#____\n_____#____#____\n##____________#\n_______###_____\n____#__________\n____###____#___\n###_________###\n___#____###____\n__________#____\n_____###_______\n#____________##\n____#____#_____\n____#____#_____\n____#____#_____'
p27
aS'______#____#___\n______#____#___\n___________#___\n___#_____##____\n###____________\n______###____##\n____##_____#___\n_______________\n___#_____##____\n##____###______\n____________###\n____##_____#___\n___#___________\n___#____#______\n___#____#______'
p28
aS'____##_____#___\n_____#_____#___\n_____#_________\n_________#_____\n#_____###___###\n___#___#___#___\n____#__________\n_____#___#_____\n__________#____\n___#___#___#___\n###___###_____#\n_____#_________\n_________#_____\n___#_____#_____\n___#_____##____'
p29
aS'_____##____#___\n___________#___\n___________#___\n___##____#_____\n###____###_____\n__________#____\n_____##____####\n_______________\n####____##_____\n____#__________\n_____###____###\n_____#____##___\n___#___________\n___#___________\n___#____##_____'
p30
aS'____#____#_____\n____#____#_____\n_________#_____\n___#____#______\n___________####\n###___##___#___\n_____#_________\n____#_____#____\n_________#_____\n___#___##___###\n####___________\n______#____#___\n_____#_________\n_____#____#____\n_____#____#____'
p31
aS'___#____#______\n________#______\n________#______\n____#______####\n####___#___#___\n_____#___#_____\n______#___#____\n_______________\n____#___#______\n_____#___#_____\n___#___#___####\n####______#____\n______#________\n______#________\n______#____#___'
p32
aS'____#____#_____\n____#____#_____\n____#____#_____\n_______#____###\n______#________\n___#______#____\n###_____##_____\n##___________##\n_____##_____###\n____#______#___\n________#______\n###____#_______\n_____#____#____\n_____#____#____\n_____#____#____'
p33
aS'____#____#_____\n____#____#_____\n_________#_____\n_____#_____#___\n###___________#\n______###____##\n___##__________\n_____#___#_____\n__________##___\n##____###______\n#___________###\n___#_____#_____\n_____#_________\n_____#____#____\n_____#____#____'
p34
aS'____#_____#____\n____#_____#____\n____#__________\n____#___##_____\n___________#___\n###____#____###\n_____##___#____\n_______________\n____#___##_____\n###____#____###\n___#___________\n_____##___#____\n__________#____\n____#_____#____\n____#_____#____'
p35
aS'___#_____#_____\n___#_____#_____\n___#_____#_____\n_______#___#___\n##_____#_______\n______#_____###\n_____#____#____\n___#_______#___\n____#____#_____\n###_____#______\n_______#_____##\n___#___#_______\n_____#_____#___\n_____#_____#___\n_____#_____#___'
p36
aS'____#_____#____\n____#_____#____\n__________#____\n#________#_____\n___#____#______\n___#___#___#___\n____###_____###\n#_____________#\n###_____###____\n___#___#___#___\n______#____#___\n_____#________#\n____#__________\n____#_____#____\n____#_____#____'
p37
aS'______#________\n_______________\n_______________\n____#______#___\n__________#____\n___#_____#_____\n#_______#______\n_______#_______\n______#_______#\n_____#_____#___\n____#__________\n___#______#____\n_______________\n_______________\n________#______'
p38
aS'___#____#______\n___#____#______\n___#___________\n_______#____###\n____#____##____\n_____#_________\n###_____#______\n___#_______#___\n______#_____###\n_________#_____\n____##____#____\n###____#_______\n___________#___\n______#____#___\n______#____#___'
p39
aS'_____#____#____\n_____#____#____\n__________#____\n___#______#____\n####_____#_____\n____##___#___##\n_______________\n_______________\n_______________\n##___#___##____\n_____#_____####\n____#______#___\n____#__________\n____#____#_____\n____#____#_____'
p40
aS'____##____#____\n____#_____#____\n____#_____#____\n_______#_______\n##______#___###\n___#_______#___\n_____##___#____\n_______________\n____#___##_____\n___#_______#___\n###___#______##\n_______#_______\n____#_____#____\n____#_____#____\n____#____##____'
p41
aS'_____#____#____\n_____#____#____\n__________#____\n____#____#_____\n###____##____##\n#______________\n_____##____#___\n____#_____#____\n___#____##_____\n______________#\n##____##____###\n_____#____#____\n____#__________\n____#____#_____\n____#____#_____'
p42
aS'_____#____#____\n_____#____#____\n__________#____\n____#___#______\n####___________\n______##___####\n_____#____#____\n_______________\n____#____#_____\n####___##______\n___________####\n______#___#____\n____#__________\n____#____#_____\n____#____#_____'
p43
aS'____#_____#____\n____#_____#____\n____#_____#____\n_____________##\n___#____##_____\n______#____#___\n____##_________\n###____#____###\n_________##____\n___#____#______\n_____##____#___\n##_____________\n____#_____#____\n____#_____#____\n____#_____#____'
p44
aS'_____#___#_____\n_____#___#_____\n_____#_________\n____#___#______\n###____#____###\n______#________\n______#____#___\n____#_____#____\n___#____#______\n________#______\n###____#____###\n______#___#____\n_________#_____\n_____#___#_____\n_____#___#_____'
p45
aS'_____#_____#___\n_____#_____#___\n___________#___\n____#___##_____\n###____________\n_____##___#____\n____________###\n___#___#___#___\n###____________\n____#___##_____\n____________###\n_____##___#____\n___#___________\n___#_____#_____\n___#_____#_____'
p46
aS'____##___##____\n____#____#_____\n____#____#_____\n_________#_____\n###_____#___###\n______##______#\n___#______#____\n_____#___#_____\n____#______#___\n#______##______\n###___#_____###\n_____#_________\n_____#____#____\n_____#____#____\n____##___##____'
p47
aS'____#______#___\n____#______#___\n____#__________\n_____##___#____\n__________#____\n###____#_____##\n___##___##_____\n_______________\n_____##___##___\n##_____#____###\n____#__________\n____#___##_____\n__________#____\n___#______#____\n___#______#____'
p48
aS'____#_____#____\n__________#____\n__________#____\n_____#____#____\n##____####_____\n____#___#____##\n_______________\n_______________\n_______________\n##____#___#____\n_____####____##\n____#____#_____\n____#__________\n____#__________\n____#_____#____'
p49
aS'____#_____#____\n____#_____#____\n_______________\n________##_____\n####___#_______\n___________####\n_____##___#____\n_______________\n____#___##_____\n####___________\n_______#___####\n_____##________\n_______________\n____#_____#____\n____#_____#____'
p50
aS'____#______#___\n____#______#___\n___________#___\n_____##___#____\n###___###______\n____________###\n___##____#_____\n_____#___#_____\n_____#____##___\n###____________\n______###___###\n____#___##_____\n___#___________\n___#______#____\n___#______#____'
p51
aS'_______##______\n_______#_______\n_______#_______\n____#______#___\n___#____#___###\n###___#________\n_____#____#____\n____#_____#____\n____#____#_____\n________#___###\n###___#____#___\n___#______#____\n_______#_______\n_______#_______\n______##_______'
p52
aS'____#_____#____\n____#_____#____\n__________#____\n______#________\n###____##____##\n_____#___#_____\n____#______#___\n___#_______#___\n___#______#____\n_____#___#_____\n##____##____###\n________#______\n____#__________\n____#_____#____\n____#_____#____'
p53
aS'_____#____#____\n_____#____#____\n__________#____\n___#____##_____\n###____________\n______##___####\n_____#____#____\n_______________\n____#____#_____\n####___##______\n____________###\n_____##____#___\n____#__________\n____#____#_____\n____#____#_____'
p54
aS'_____#____#____\n_____#____#____\n__________#____\n___#____##_____\n###____________\n_______#___####\n____###________\n_______________\n________###____\n####___#_______\n____________###\n_____##____#___\n____#__________\n____#____#_____\n____#____#_____'
p55
aS'____#_____#____\n____#_____#____\n____#__________\n________#______\n###____#____###\n______#________\n_____#____##___\n_____#___#_____\n___##____#_____\n________#______\n###____#____###\n______#________\n__________#____\n____#_____#____\n____#_____#____'
p56
aS'____#_____#____\n____#_____#____\n_______________\n___#____##_____\n###____#____###\n______#________\n_____#_____#___\n____#_____#____\n___#_____#_____\n________#______\n###____#____###\n_____##____#___\n_______________\n____#_____#____\n____#_____#____'
p57
aS'____#_____#____\n____#_____#____\n____#_____#____\n_______#______#\n_____#_____#___\n___#_____#_____\n###___#___#____\n##___________##\n____#___#___###\n_____#_____#___\n___#_____#_____\n#______#_______\n____#_____#____\n____#_____#____\n____#_____#____'
p58
aS'_____#____##___\n_____#____#____\n__________#____\n_______##______\n###___#________\n_____#___#___##\n____#______#___\n___#_______#___\n___#______#____\n##___#___#_____\n________#___###\n______##_______\n____#__________\n____#____#_____\n___##____#_____'
p59
aS'_____#_____#___\n_____#_____#___\n_______________\n#_____#___#____\n###______#_____\n___#___#____###\n____#___#______\n_______________\n______#___#____\n###____#___#___\n_____#______###\n____#___#_____#\n_______________\n___#_____#_____\n___#_____#_____'
p60
aS'____#____#_____\n____#____#_____\n____#____#_____\n________#______\n###___#____####\n#_____#________\n___#_____##____\n_______#_______\n____##_____#___\n________#_____#\n####____#___###\n______#________\n_____#____#____\n_____#____#____\n_____#____#____'
p61
aS'___#_____#_____\n___#_____#_____\n___#___________\n_____##___#____\n_______#____###\n##_____________\n___#____##_____\n____#_____#____\n_____##____#___\n_____________##\n###____#_______\n____#___##_____\n___________#___\n_____#_____#___\n_____#_____#___'
p62
aS'____###___#____\n____#_____#____\n__________#____\n###_______#____\n_____###_______\n___#____#____##\n____#____#_____\n_______________\n_____#____#____\n##____#____#___\n_______###_____\n____#_______###\n____#__________\n____#_____#____\n____#___###____'
p63
aS'#___#______#___\n_______________\n_______________\n_____#____#___#\n___#____#______\n#_____#____#___\n____#____#_____\n_______#_______\n_____#____#____\n___#____#_____#\n______#____#___\n#___#____#_____\n_______________\n_______________\n___#______#___#'
p64
aS'______#____#___\n______#____#___\n___________#___\n___#_____##____\n###____________\n______###____##\n____##_____#___\n_______________\n___#_____##____\n##____###______\n____________###\n____##_____#___\n___#___________\n___#____#______\n___#____#______'
p65
aS'____#____#_____\n____#____#_____\n____#____#_____\n_______________\n###___##___####\n___#____#______\n____#____#_____\n_______________\n_____#____#____\n______#____#___\n####___##___###\n_______________\n_____#____#____\n_____#____#____\n_____#____#____'
p66
aS'_____#____#____\n_____#____#____\n__________#____\n____#___#____##\n___#___________\n______##___#___\n###______##____\n#_____________#\n____##______###\n___#___##______\n___________#___\n##____#___#____\n____#__________\n____#____#_____\n____#____#_____'
p67
aS'_____#____#____\n_____#____#____\n_____#____#____\n_______#_______\n####_____#_____\n____#______####\n____#___#______\n_______#_______\n______#___#____\n####______#____\n_____#_____####\n_______#_______\n____#____#_____\n____#____#_____\n____#____#_____'
p68
aS'___#______#____\n___#______#____\n___#___________\n____#___##_____\n____________###\n##____##_______\n_____#____##___\n_______________\n___##____#_____\n_______##____##\n###____________\n_____##___#____\n___________#___\n____#______#___\n____#______#___'
p69
aS'_____#_____#___\n_____#_____#___\n_____#_________\n___##____#_____\n_____________##\n______###______\n###____________\n___###___###___\n____________###\n______###______\n##_____________\n_____#____##___\n_________#_____\n___#_____#_____\n___#_____#_____'
p70
aS'#______#_____##\n#______#_______\n_______#_______\n___#___#_______\n______#___#____\n_____#______###\n____#___#_____#\n___#___#___#___\n#_____#___#____\n###______#_____\n____#___#______\n_______#___#___\n_______#_______\n_______#______#\n##_____#______#'
p71
aS'____#_____#____\n____#_____#____\n____#_____#____\n______#________\n##___#_______##\n___#___##______\n___#_____#_____\n____#_____#____\n_____#_____#___\n______##___#___\n##_______#___##\n________#______\n____#_____#____\n____#_____#____\n____#_____#____'
p72
aS'____#_____#____\n____#_____#____\n__________#____\n_____#____#____\n______##_____##\n###______#_____\n____#___#______\n___#_______#___\n______#___#____\n_____#______###\n##_____##______\n____#____#_____\n____#__________\n____#_____#____\n____#_____#____'
p73
aS'____#____#_____\n____#____#_____\n_________#_____\n###_______#____\n___#___#_______\n____##_____#___\n________#___###\n##___________##\n###___#________\n___#_____##____\n_______#___#___\n____#_______###\n_____#_________\n_____#____#____\n_____#____#____'
p74
aS'____#______#___\n____#______#___\n___________#___\n_______##______\n_____#___#___##\n####___________\n______#___#____\n_______#_______\n____#___#______\n___________####\n##___#___#_____\n______##_______\n___#___________\n___#______#____\n___#______#____'
p75
aS'____#_____#____\n____#_____#____\n____#_____#____\n##_____________\n___#___###____#\n____________###\n_____##____#___\n____#_____#____\n___#____##_____\n###____________\n#____###___#___\n_____________##\n____#_____#____\n____#_____#____\n____#_____#____'
p76
aS'____##___#_____\n_____#___#_____\n_____#_________\n___#______#____\n___________#___\n###___###____##\n____#____#_____\n_______________\n_____#____#____\n##____###___###\n___#___________\n____#______#___\n_________#_____\n_____#___#_____\n_____#___##____'
p77
aS'____#____#_____\n____#____#_____\n____#____#_____\n______________#\n###____##___###\n______#___#____\n_____#_____#___\n_______________\n___#_____#_____\n____#___#______\n###___##____###\n#______________\n_____#____#____\n_____#____#____\n_____#____#____'
p78
aS'_______#_______\n_______________\n_______________\n_____#_____#___\n____#_____#____\n___#_____#_____\n________#______\n#______#______#\n______#________\n_____#_____#___\n____#_____#____\n___#_____#_____\n_______________\n_______________\n_______#_______'
p79
aS'_____#____#____\n_____#____#____\n_______________\n###______#_____\n_______##______\n___#______##___\n_____##_____###\n#_____________#\n###_____##_____\n___##______#___\n______##_______\n_____#______###\n_______________\n____#____#_____\n____#____#_____'
p80
aS'____#____#_____\n____#____#_____\n_________#_____\n_____##___#____\n####___________\n____#_______###\n____#____#_____\n______###______\n_____#____#____\n###_______#____\n___________####\n____#___##_____\n_____#_________\n_____#____#____\n_____#____#____'
p81
aS'____#____#_____\n____#____#_____\n____#__________\n_____##______##\n__________##___\n___#___#_______\n###_____##_____\n_______________\n_____##_____###\n_______#___#___\n___##__________\n##______##_____\n__________#____\n_____#____#____\n_____#____#____'
p82
aS'______#___#____\n______#___#____\n__________#____\n###____#_______\n_____#______###\n___##____#_____\n____#___#______\n____#_____#____\n______#___#____\n_____#____##___\n###______#_____\n_______#____###\n____#__________\n____#___#______\n____#___#______'
p83
aS'_____#____#____\n_____#____#____\n__________#____\n___#_____#_____\n###____#____###\n##_____________\n____#___#______\n_____#___#_____\n______#___#____\n_____________##\n###____#____###\n_____#_____#___\n____#__________\n____#____#_____\n____#____#_____'
p84
aS'____#_____##___\n____#_____#____\n__________#____\n###______#_____\n________#______\n______##_____##\n___##__________\n_____#___#_____\n__________##___\n##_____##______\n______#________\n_____#______###\n____#__________\n____#_____#____\n___##_____#____'
p85
aS'___#____#______\n___#____#______\n___#___________\n____###_____###\n_________##____\n_______#___#___\n###_____#______\n#_____________#\n______#_____###\n___#___#_______\n____##_________\n###_____###____\n___________#___\n______#____#___\n______#____#___'
p86
aS'___#____#______\n___#____#______\n________#______\n____#____#___##\n_____#_________\n###____#_______\n#_____#___#____\n___#_______#___\n____#___#_____#\n_______#____###\n_________#_____\n##___#____#____\n______#________\n______#____#___\n______#____#___'
p87
aS'______#___#____\n______#___#____\n______#___#____\n___##___#______\n###____#_______\n_____________##\n_____#____##___\n_____#___#_____\n___##____#_____\n##_____________\n_______#____###\n______#___##___\n____#___#______\n____#___#______\n____#___#______'
p88
aS'_____#___#_____\n_____#___#_____\n_____#_________\n____#_______###\n#______##______\n##____#___#____\n_____#____#____\n___#_______#___\n____#____#_____\n____#___#____##\n______##______#\n###_______#____\n_________#_____\n_____#___#_____\n_____#___#_____'
p89
aS'____##____#____\n____#_____#____\n____#__________\n_______##___###\n###___#________\n#____#_____#___\n_____#____#____\n_____#___#_____\n____#____#_____\n___#_____#____#\n________#___###\n###___##_______\n__________#____\n____#_____#____\n____#____##____'
p90
aS'____#____#_____\n____#____#_____\n_________#_____\n___#____#____##\n#______________\n###___##___#___\n____##_____#___\n_______________\n___#_____##____\n___#___##___###\n______________#\n##____#____#___\n_____#_________\n_____#____#____\n_____#____#____'
p91
aS'____##____#____\n____#_____#____\n____#_____#____\n________#______\n_______________\n##____##____###\n_____#_____#___\n____#_____#____\n___#_____#_____\n###____##____##\n_______________\n______#________\n____#_____#____\n____#_____#____\n____#____##____'
p92
aS'____##___##____\n_____#____#____\n_____#_________\n________#______\n###____#____###\n______#____#___\n_____#_____#___\n____#_____#____\n___#_____#_____\n___#____#______\n###____#____###\n______#________\n_________#_____\n____#____#_____\n____##___##____'
p93
aS'___#____#______\n___#____#______\n________#______\n_____#_____####\n____##_________\n______##_______\n####_____##____\n#_____________#\n____##_____####\n_______##______\n_________##____\n####_____#_____\n______#________\n______#____#___\n______#____#___'
p94
aS'_____#____#____\n_____#____#____\n_______________\n___#____#______\n###___##____###\n_____________##\n_____#____#____\n___##_____##___\n____#____#_____\n##_____________\n###____##___###\n______#____#___\n_______________\n____#____#_____\n____#____#_____'
p95
a.